
Composite_Duck.elf:     file format elf32-avr32

Sections:
Idx Name          Size      VMA       LMA       File off  Algn
  0 .reset        00002008  80000000  80000000  00000400  2**2
                  CONTENTS, ALLOC, LOAD, READONLY, CODE
  1 .rela.got     00000000  80002008  80002008  00002408  2**2
                  CONTENTS, ALLOC, LOAD, READONLY, DATA
  2 .text         00005172  80002008  80002008  00002408  2**2
                  CONTENTS, ALLOC, LOAD, READONLY, CODE
  3 .exception    00000200  80007200  80007200  00007600  2**9
                  CONTENTS, ALLOC, LOAD, READONLY, CODE
  4 .rodata       00000284  80007400  80007400  00007800  2**2
                  CONTENTS, ALLOC, LOAD, READONLY, DATA
  5 .lalign       00000004  80007684  80007684  00007a84  2**0
                  ALLOC
  6 .dalign       00000004  00000004  00000004  00000000  2**0
                  ALLOC
  7 .data         00000168  00000008  80007688  00007c08  2**2
                  CONTENTS, ALLOC, LOAD, DATA
  8 .bss          00002900  00000170  00000170  00000000  2**2
                  ALLOC
  9 .heap         00004590  00002a70  00002a70  00000000  2**0
                  ALLOC
 10 .comment      00000030  00000000  00000000  00007d70  2**0
                  CONTENTS, READONLY
 11 .debug_aranges 00000020  00000000  00000000  00007da0  2**0
                  CONTENTS, READONLY, DEBUGGING
 12 .debug_pubnames 0000004b  00000000  00000000  00007dc0  2**0
                  CONTENTS, READONLY, DEBUGGING
 13 .debug_info   0000013e  00000000  00000000  00007e0b  2**0
                  CONTENTS, READONLY, DEBUGGING
 14 .debug_abbrev 000000de  00000000  00000000  00007f49  2**0
                  CONTENTS, READONLY, DEBUGGING
 15 .debug_line   0000024c  00000000  00000000  00008027  2**0
                  CONTENTS, READONLY, DEBUGGING
 16 .debug_frame  00002c30  00000000  00000000  00008274  2**2
                  CONTENTS, READONLY, DEBUGGING
 17 .debug_str    00000159  00000000  00000000  0000aea4  2**0
                  CONTENTS, READONLY, DEBUGGING
 18 .stack        00001000  00007000  00007000  00000000  2**0
                  ALLOC
 19 .debug_ranges 00000018  00000000  00000000  0000affd  2**0
                  CONTENTS, READONLY, DEBUGGING

Disassembly of section .reset:

80000000 <_start>:
80000000:	fe cf a6 5c 	sub	pc,pc,-22948

80000004 <_trampoline>:
80000004:	e0 8f 10 00 	bral	80002004 <program_start>
	...

80002004 <program_start>:
80002004:	fe cf c6 60 	sub	pc,pc,-14752

Disassembly of section .text:

80002008 <sd_mmc_spi_get_capacity>:
80002008:	d4 21       	pushm	r4-r7,lr
8000200a:	e0 69 27 42 	mov	r9,10050
8000200e:	e0 68 27 44 	mov	r8,10052
80002012:	13 8e       	ld.ub	lr,r9[0x0]
80002014:	11 da       	ld.ub	r10,r8[0x5]
80002016:	f1 35 00 08 	ld.ub	r5,r8[8]
8000201a:	f1 37 00 09 	ld.ub	r7,r8[9]
8000201e:	11 f6       	ld.ub	r6,r8[0x7]
80002020:	e0 6c 27 30 	mov	r12,10032
80002024:	e0 6b 27 38 	mov	r11,10040
80002028:	e0 69 27 3c 	mov	r9,10044
8000202c:	30 34       	mov	r4,3
8000202e:	e8 0e 18 00 	cp.b	lr,r4
80002032:	c1 f1       	brne	80002070 <sd_mmc_spi_get_capacity+0x68>
80002034:	ef e5 10 87 	or	r7,r7,r5<<0x8
80002038:	eb d6 c0 06 	bfextu	r5,r6,0x0,0x6
8000203c:	ef e5 11 05 	or	r5,r7,r5<<0x10
80002040:	2f f5       	sub	r5,-1
80002042:	ea 08 16 0d 	lsr	r8,r5,0xd
80002046:	b3 75       	lsl	r5,0x13
80002048:	10 97       	mov	r7,r8
8000204a:	0a 96       	mov	r6,r5
8000204c:	f8 e7 00 00 	st.d	r12[0],r6
80002050:	f1 d8 c0 09 	bfextu	r8,r8,0x0,0x9
80002054:	b6 08       	st.h	r11[0x0],r8
80002056:	f8 e6 00 00 	ld.d	r6,r12[0]
8000205a:	96 0a       	ld.sh	r10,r11[0x0]
8000205c:	0c 98       	mov	r8,r6
8000205e:	b7 7a       	lsl	r10,0x17
80002060:	a9 98       	lsr	r8,0x9
80002062:	0e 95       	mov	r5,r7
80002064:	f1 e5 11 78 	or	r8,r8,r5<<0x17
80002068:	20 18       	sub	r8,1
8000206a:	14 08       	add	r8,r10
8000206c:	93 08       	st.w	r9[0x0],r8
8000206e:	c3 c8       	rjmp	800020e6 <sd_mmc_spi_get_capacity+0xde>
80002070:	a7 85       	lsr	r5,0x6
80002072:	11 e4       	ld.ub	r4,r8[0x6]
80002074:	ea 06 00 26 	add	r6,r5,r6<<0x2
80002078:	f1 38 00 0a 	ld.ub	r8,r8[10]
8000207c:	f0 05 16 07 	lsr	r5,r8,0x7
80002080:	ef d7 c0 02 	bfextu	r7,r7,0x0,0x2
80002084:	e9 d4 c0 02 	bfextu	r4,r4,0x0,0x2
80002088:	ea 07 00 17 	add	r7,r5,r7<<0x1
8000208c:	ab 64       	lsl	r4,0xa
8000208e:	2f e7       	sub	r7,-2
80002090:	08 06       	add	r6,r4
80002092:	f5 da c0 04 	bfextu	r10,r10,0x0,0x4
80002096:	2f f6       	sub	r6,-1
80002098:	ec 07 09 47 	lsl	r7,r6,r7
8000209c:	20 17       	sub	r7,1
8000209e:	93 07       	st.w	r9[0x0],r7
800020a0:	72 05       	ld.w	r5,r9[0x0]
800020a2:	2f f5       	sub	r5,-1
800020a4:	ea 0a 09 45 	lsl	r5,r5,r10
800020a8:	0a 96       	mov	r6,r5
800020aa:	30 05       	mov	r5,0
800020ac:	0a 97       	mov	r7,r5
800020ae:	f8 e7 00 00 	st.d	r12[0],r6
800020b2:	30 0c       	mov	r12,0
800020b4:	b6 0c       	st.h	r11[0x0],r12
800020b6:	30 9b       	mov	r11,9
800020b8:	f6 0a 18 00 	cp.b	r10,r11
800020bc:	e0 88 00 07 	brls	800020ca <sd_mmc_spi_get_capacity+0xc2>
800020c0:	72 0b       	ld.w	r11,r9[0x0]
800020c2:	20 9a       	sub	r10,9
800020c4:	f6 0a 09 4a 	lsl	r10,r11,r10
800020c8:	93 0a       	st.w	r9[0x0],r10
800020ca:	58 0e       	cp.w	lr,0
800020cc:	c0 d1       	brne	800020e6 <sd_mmc_spi_get_capacity+0xde>
800020ce:	f5 d8 c0 02 	bfextu	r10,r8,0x0,0x2
800020d2:	e0 69 27 44 	mov	r9,10052
800020d6:	f1 d8 c0 45 	bfextu	r8,r8,0x2,0x5
800020da:	f3 39 00 0b 	ld.ub	r9,r9[11]
800020de:	a5 99       	lsr	r9,0x5
800020e0:	f3 ea 10 39 	or	r9,r9,r10<<0x3
800020e4:	c0 d8       	rjmp	800020fe <sd_mmc_spi_get_capacity+0xf6>
800020e6:	e0 69 27 44 	mov	r9,10052
800020ea:	f3 3a 00 0b 	ld.ub	r10,r9[11]
800020ee:	f3 38 00 0a 	ld.ub	r8,r9[10]
800020f2:	a7 9a       	lsr	r10,0x7
800020f4:	f1 d8 c0 06 	bfextu	r8,r8,0x0,0x6
800020f8:	30 09       	mov	r9,0
800020fa:	f4 08 00 18 	add	r8,r10,r8<<0x1
800020fe:	2f f9       	sub	r9,-1
80002100:	2f f8       	sub	r8,-1
80002102:	e0 6a 27 3a 	mov	r10,10042
80002106:	f2 08 02 48 	mul	r8,r9,r8
8000210a:	b4 08       	st.h	r10[0x0],r8
8000210c:	d8 22       	popm	r4-r7,pc
8000210e:	d7 03       	nop

80002110 <sd_mmc_spi_write_close>:
80002110:	5e fc       	retal	r12
80002112:	d7 03       	nop

80002114 <sd_mmc_spi_send_and_read>:
80002114:	d4 01       	pushm	lr
80002116:	20 1d       	sub	sp,4
80002118:	18 9b       	mov	r11,r12
8000211a:	fe 7c 24 00 	mov	r12,-56320
8000211e:	e0 a0 14 5e 	rcall	800049da <spi_write>
80002122:	fa cb ff fe 	sub	r11,sp,-2
80002126:	fe 7c 24 00 	mov	r12,-56320
8000212a:	e0 a0 14 66 	rcall	800049f6 <spi_read>
8000212e:	58 1c       	cp.w	r12,1
80002130:	c0 41       	brne	80002138 <sd_mmc_spi_send_and_read+0x24>
80002132:	e0 6c 00 ff 	mov	r12,255
80002136:	c0 28       	rjmp	8000213a <sd_mmc_spi_send_and_read+0x26>
80002138:	1b bc       	ld.ub	r12,sp[0x3]
8000213a:	2f fd       	sub	sp,-4
8000213c:	d8 02       	popm	pc
8000213e:	d7 03       	nop

80002140 <sd_mmc_spi_wait_not_busy>:
80002140:	d4 21       	pushm	r4-r7,lr
80002142:	30 1b       	mov	r11,1
80002144:	fe 7c 24 00 	mov	r12,-56320
80002148:	e0 65 27 54 	mov	r5,10068
8000214c:	e0 a0 13 b4 	rcall	800048b4 <spi_selectChip>
80002150:	3f f6       	mov	r6,-1
80002152:	30 07       	mov	r7,0
80002154:	c0 b8       	rjmp	8000216a <sd_mmc_spi_wait_not_busy+0x2a>
80002156:	2f f7       	sub	r7,-1
80002158:	e2 57 0d 40 	cp.w	r7,200000
8000215c:	c0 71       	brne	8000216a <sd_mmc_spi_wait_not_busy+0x2a>
8000215e:	30 1b       	mov	r11,1
80002160:	fe 7c 24 00 	mov	r12,-56320
80002164:	e0 a0 13 d0 	rcall	80004904 <spi_unselectChip>
80002168:	d8 2a       	popm	r4-r7,pc,r12=0
8000216a:	e0 6c 00 ff 	mov	r12,255
8000216e:	cd 3f       	rcall	80002114 <sd_mmc_spi_send_and_read>
80002170:	aa 8c       	st.b	r5[0x0],r12
80002172:	ec 0c 18 00 	cp.b	r12,r6
80002176:	cf 01       	brne	80002156 <sd_mmc_spi_wait_not_busy+0x16>
80002178:	30 1b       	mov	r11,1
8000217a:	fe 7c 24 00 	mov	r12,-56320
8000217e:	e0 a0 13 c3 	rcall	80004904 <spi_unselectChip>
80002182:	da 2a       	popm	r4-r7,pc,r12=1

80002184 <sd_mmc_spi_write_open>:
80002184:	d4 01       	pushm	lr
80002186:	e0 68 01 70 	mov	r8,368
8000218a:	a9 7c       	lsl	r12,0x9
8000218c:	91 0c       	st.w	r8[0x0],r12
8000218e:	cd 9f       	rcall	80002140 <sd_mmc_spi_wait_not_busy>
80002190:	d8 02       	popm	pc
80002192:	d7 03       	nop

80002194 <sd_mmc_spi_read_close>:
80002194:	d4 01       	pushm	lr
80002196:	cd 5f       	rcall	80002140 <sd_mmc_spi_wait_not_busy>
80002198:	d8 02       	popm	pc
8000219a:	d7 03       	nop

8000219c <sd_mmc_spi_read_open>:
8000219c:	d4 01       	pushm	lr
8000219e:	e0 68 01 70 	mov	r8,368
800021a2:	a9 7c       	lsl	r12,0x9
800021a4:	91 0c       	st.w	r8[0x0],r12
800021a6:	cc df       	rcall	80002140 <sd_mmc_spi_wait_not_busy>
800021a8:	d8 02       	popm	pc
800021aa:	d7 03       	nop

800021ac <sd_mmc_spi_command>:
800021ac:	d4 21       	pushm	r4-r7,lr
800021ae:	16 97       	mov	r7,r11
800021b0:	18 96       	mov	r6,r12
800021b2:	e0 6b 00 ff 	mov	r11,255
800021b6:	fe 7c 24 00 	mov	r12,-56320
800021ba:	e0 a0 14 10 	rcall	800049da <spi_write>
800021be:	fe 7c 24 00 	mov	r12,-56320
800021c2:	0c 9b       	mov	r11,r6
800021c4:	a7 ab       	sbr	r11,0x6
800021c6:	5c 5b       	castu.b	r11
800021c8:	e0 a0 14 09 	rcall	800049da <spi_write>
800021cc:	ee 0b 16 18 	lsr	r11,r7,0x18
800021d0:	fe 7c 24 00 	mov	r12,-56320
800021d4:	e0 a0 14 03 	rcall	800049da <spi_write>
800021d8:	ee 0b 16 10 	lsr	r11,r7,0x10
800021dc:	fe 7c 24 00 	mov	r12,-56320
800021e0:	e0 a0 13 fd 	rcall	800049da <spi_write>
800021e4:	f7 d7 c1 10 	bfextu	r11,r7,0x8,0x10
800021e8:	fe 7c 24 00 	mov	r12,-56320
800021ec:	e0 a0 13 f7 	rcall	800049da <spi_write>
800021f0:	0e 9b       	mov	r11,r7
800021f2:	fe 7c 24 00 	mov	r12,-56320
800021f6:	5c 7b       	castu.h	r11
800021f8:	e0 a0 13 f1 	rcall	800049da <spi_write>
800021fc:	30 08       	mov	r8,0
800021fe:	f0 06 18 00 	cp.b	r6,r8
80002202:	c0 60       	breq	8000220e <sd_mmc_spi_command+0x62>
80002204:	30 88       	mov	r8,8
80002206:	f0 06 18 00 	cp.b	r6,r8
8000220a:	c0 81       	brne	8000221a <sd_mmc_spi_command+0x6e>
8000220c:	c0 48       	rjmp	80002214 <sd_mmc_spi_command+0x68>
8000220e:	e0 6b 00 95 	mov	r11,149
80002212:	c0 68       	rjmp	8000221e <sd_mmc_spi_command+0x72>
80002214:	e0 6b 00 87 	mov	r11,135
80002218:	c0 38       	rjmp	8000221e <sd_mmc_spi_command+0x72>
8000221a:	e0 6b 00 ff 	mov	r11,255
8000221e:	fe 7c 24 00 	mov	r12,-56320
80002222:	e0 a0 13 dc 	rcall	800049da <spi_write>
80002226:	e0 68 27 54 	mov	r8,10068
8000222a:	3f f5       	mov	r5,-1
8000222c:	10 94       	mov	r4,r8
8000222e:	b0 85       	st.b	r8[0x0],r5
80002230:	30 07       	mov	r7,0
80002232:	30 b6       	mov	r6,11
80002234:	c0 68       	rjmp	80002240 <sd_mmc_spi_command+0x94>
80002236:	2f f7       	sub	r7,-1
80002238:	5c 57       	castu.b	r7
8000223a:	ec 07 18 00 	cp.b	r7,r6
8000223e:	c0 80       	breq	8000224e <sd_mmc_spi_command+0xa2>
80002240:	e0 6c 00 ff 	mov	r12,255
80002244:	c6 8f       	rcall	80002114 <sd_mmc_spi_send_and_read>
80002246:	a8 8c       	st.b	r4[0x0],r12
80002248:	ea 0c 18 00 	cp.b	r12,r5
8000224c:	cf 50       	breq	80002236 <sd_mmc_spi_command+0x8a>
8000224e:	d8 22       	popm	r4-r7,pc

80002250 <sd_mmc_spi_send_command>:
80002250:	d4 21       	pushm	r4-r7,lr
80002252:	18 97       	mov	r7,r12
80002254:	16 96       	mov	r6,r11
80002256:	fe 7c 24 00 	mov	r12,-56320
8000225a:	30 1b       	mov	r11,1
8000225c:	e0 a0 13 2c 	rcall	800048b4 <spi_selectChip>
80002260:	0c 9b       	mov	r11,r6
80002262:	0e 9c       	mov	r12,r7
80002264:	ca 4f       	rcall	800021ac <sd_mmc_spi_command>
80002266:	30 1b       	mov	r11,1
80002268:	e0 67 27 54 	mov	r7,10068
8000226c:	ae 8c       	st.b	r7[0x0],r12
8000226e:	fe 7c 24 00 	mov	r12,-56320
80002272:	e0 a0 13 49 	rcall	80004904 <spi_unselectChip>
80002276:	0f 8c       	ld.ub	r12,r7[0x0]
80002278:	d8 22       	popm	r4-r7,pc
8000227a:	d7 03       	nop

8000227c <sd_mmc_spi_check_presence>:
8000227c:	d4 21       	pushm	r4-r7,lr
8000227e:	e0 67 03 88 	mov	r7,904
80002282:	30 06       	mov	r6,0
80002284:	0f 88       	ld.ub	r8,r7[0x0]
80002286:	ec 08 18 00 	cp.b	r8,r6
8000228a:	c1 a1       	brne	800022be <sd_mmc_spi_check_presence+0x42>
8000228c:	30 07       	mov	r7,0
8000228e:	e0 64 27 54 	mov	r4,10068
80002292:	30 15       	mov	r5,1
80002294:	30 b6       	mov	r6,11
80002296:	c0 c8       	rjmp	800022ae <sd_mmc_spi_check_presence+0x32>
80002298:	e0 6b 00 ff 	mov	r11,255
8000229c:	fe 7c 24 00 	mov	r12,-56320
800022a0:	e0 a0 13 9d 	rcall	800049da <spi_write>
800022a4:	2f f7       	sub	r7,-1
800022a6:	5c 87       	casts.h	r7
800022a8:	ec 07 19 00 	cp.h	r7,r6
800022ac:	c1 20       	breq	800022d0 <sd_mmc_spi_check_presence+0x54>
800022ae:	30 0b       	mov	r11,0
800022b0:	16 9c       	mov	r12,r11
800022b2:	cc ff       	rcall	80002250 <sd_mmc_spi_send_command>
800022b4:	a8 8c       	st.b	r4[0x0],r12
800022b6:	ea 0c 18 00 	cp.b	r12,r5
800022ba:	ce f1       	brne	80002298 <sd_mmc_spi_check_presence+0x1c>
800022bc:	c0 b8       	rjmp	800022d2 <sd_mmc_spi_check_presence+0x56>
800022be:	30 0b       	mov	r11,0
800022c0:	33 bc       	mov	r12,59
800022c2:	cc 7f       	rcall	80002250 <sd_mmc_spi_send_command>
800022c4:	e0 68 27 54 	mov	r8,10068
800022c8:	b0 8c       	st.b	r8[0x0],r12
800022ca:	58 0c       	cp.w	r12,0
800022cc:	c0 30       	breq	800022d2 <sd_mmc_spi_check_presence+0x56>
800022ce:	ae 86       	st.b	r7[0x0],r6
800022d0:	d8 2a       	popm	r4-r7,pc,r12=0
800022d2:	da 2a       	popm	r4-r7,pc,r12=1

800022d4 <sd_mmc_spi_write_sector_from_ram>:
800022d4:	d4 21       	pushm	r4-r7,lr
800022d6:	18 97       	mov	r7,r12
800022d8:	c3 4f       	rcall	80002140 <sd_mmc_spi_wait_not_busy>
800022da:	c7 e0       	breq	800023d6 <sd_mmc_spi_write_sector_from_ram+0x102>
800022dc:	30 1b       	mov	r11,1
800022de:	fe 7c 24 00 	mov	r12,-56320
800022e2:	e0 a0 12 e9 	rcall	800048b4 <spi_selectChip>
800022e6:	e0 68 27 42 	mov	r8,10050
800022ea:	e0 66 27 54 	mov	r6,10068
800022ee:	11 8a       	ld.ub	r10,r8[0x0]
800022f0:	30 39       	mov	r9,3
800022f2:	e0 68 01 70 	mov	r8,368
800022f6:	f2 0a 18 00 	cp.b	r10,r9
800022fa:	c0 41       	brne	80002302 <sd_mmc_spi_write_sector_from_ram+0x2e>
800022fc:	70 0b       	ld.w	r11,r8[0x0]
800022fe:	a9 9b       	lsr	r11,0x9
80002300:	c0 28       	rjmp	80002304 <sd_mmc_spi_write_sector_from_ram+0x30>
80002302:	70 0b       	ld.w	r11,r8[0x0]
80002304:	31 8c       	mov	r12,24
80002306:	c5 3f       	rcall	800021ac <sd_mmc_spi_command>
80002308:	e0 68 27 54 	mov	r8,10068
8000230c:	ac 8c       	st.b	r6[0x0],r12
8000230e:	11 89       	ld.ub	r9,r8[0x0]
80002310:	30 08       	mov	r8,0
80002312:	f0 09 18 00 	cp.b	r9,r8
80002316:	c3 81       	brne	80002386 <sd_mmc_spi_write_sector_from_ram+0xb2>
80002318:	e0 6b 00 ff 	mov	r11,255
8000231c:	fe 7c 24 00 	mov	r12,-56320
80002320:	e0 a0 13 5d 	rcall	800049da <spi_write>
80002324:	e0 6b 00 fe 	mov	r11,254
80002328:	fe 7c 24 00 	mov	r12,-56320
8000232c:	ee c6 fe 00 	sub	r6,r7,-512
80002330:	e0 a0 13 55 	rcall	800049da <spi_write>
80002334:	0f 3b       	ld.ub	r11,r7++
80002336:	fe 7c 24 00 	mov	r12,-56320
8000233a:	e0 a0 13 50 	rcall	800049da <spi_write>
8000233e:	0c 37       	cp.w	r7,r6
80002340:	cf a1       	brne	80002334 <sd_mmc_spi_write_sector_from_ram+0x60>
80002342:	e0 6b 00 ff 	mov	r11,255
80002346:	fe 7c 24 00 	mov	r12,-56320
8000234a:	e0 a0 13 48 	rcall	800049da <spi_write>
8000234e:	e0 6b 00 ff 	mov	r11,255
80002352:	fe 7c 24 00 	mov	r12,-56320
80002356:	e0 a0 13 42 	rcall	800049da <spi_write>
8000235a:	e0 6c 00 ff 	mov	r12,255
8000235e:	cd be       	rcall	80002114 <sd_mmc_spi_send_and_read>
80002360:	e0 68 27 54 	mov	r8,10068
80002364:	b0 8c       	st.b	r8[0x0],r12
80002366:	f9 dc c0 05 	bfextu	r12,r12,0x0,0x5
8000236a:	58 5c       	cp.w	r12,5
8000236c:	c1 30       	breq	80002392 <sd_mmc_spi_write_sector_from_ram+0xbe>
8000236e:	e0 6b 00 ff 	mov	r11,255
80002372:	fe 7c 24 00 	mov	r12,-56320
80002376:	e0 a0 13 32 	rcall	800049da <spi_write>
8000237a:	e0 6b 00 ff 	mov	r11,255
8000237e:	fe 7c 24 00 	mov	r12,-56320
80002382:	e0 a0 13 2c 	rcall	800049da <spi_write>
80002386:	30 1b       	mov	r11,1
80002388:	fe 7c 24 00 	mov	r12,-56320
8000238c:	e0 a0 12 bc 	rcall	80004904 <spi_unselectChip>
80002390:	d8 2a       	popm	r4-r7,pc,r12=0
80002392:	e0 6b 00 ff 	mov	r11,255
80002396:	fe 7c 24 00 	mov	r12,-56320
8000239a:	e0 a0 13 20 	rcall	800049da <spi_write>
8000239e:	e0 6b 00 ff 	mov	r11,255
800023a2:	fe 7c 24 00 	mov	r12,-56320
800023a6:	e0 a0 13 1a 	rcall	800049da <spi_write>
800023aa:	30 1b       	mov	r11,1
800023ac:	fe 7c 24 00 	mov	r12,-56320
800023b0:	e0 a0 12 aa 	rcall	80004904 <spi_unselectChip>
800023b4:	e0 68 01 70 	mov	r8,368
800023b8:	30 07       	mov	r7,0
800023ba:	70 09       	ld.w	r9,r8[0x0]
800023bc:	30 a6       	mov	r6,10
800023be:	f2 c9 fe 00 	sub	r9,r9,-512
800023c2:	91 09       	st.w	r8[0x0],r9
800023c4:	c0 68       	rjmp	800023d0 <sd_mmc_spi_write_sector_from_ram+0xfc>
800023c6:	2f f7       	sub	r7,-1
800023c8:	5c 87       	casts.h	r7
800023ca:	ec 07 19 00 	cp.h	r7,r6
800023ce:	c0 40       	breq	800023d6 <sd_mmc_spi_write_sector_from_ram+0x102>
800023d0:	cb 8e       	rcall	80002140 <sd_mmc_spi_wait_not_busy>
800023d2:	cf a0       	breq	800023c6 <sd_mmc_spi_write_sector_from_ram+0xf2>
800023d4:	da 2a       	popm	r4-r7,pc,r12=1
800023d6:	d8 2a       	popm	r4-r7,pc,r12=0

800023d8 <sd_mmc_spi_check_hc>:
800023d8:	d4 21       	pushm	r4-r7,lr
800023da:	cb 3e       	rcall	80002140 <sd_mmc_spi_wait_not_busy>
800023dc:	c1 20       	breq	80002400 <sd_mmc_spi_check_hc+0x28>
800023de:	30 1b       	mov	r11,1
800023e0:	fe 7c 24 00 	mov	r12,-56320
800023e4:	e0 a0 12 68 	rcall	800048b4 <spi_selectChip>
800023e8:	30 0b       	mov	r11,0
800023ea:	e0 67 27 54 	mov	r7,10068
800023ee:	33 ac       	mov	r12,58
800023f0:	cd ee       	rcall	800021ac <sd_mmc_spi_command>
800023f2:	ae 8c       	st.b	r7[0x0],r12
800023f4:	c0 70       	breq	80002402 <sd_mmc_spi_check_hc+0x2a>
800023f6:	30 1b       	mov	r11,1
800023f8:	fe 7c 24 00 	mov	r12,-56320
800023fc:	e0 a0 12 84 	rcall	80004904 <spi_unselectChip>
80002400:	dc 2a       	popm	r4-r7,pc,r12=-1
80002402:	e0 6c 00 ff 	mov	r12,255
80002406:	c8 7e       	rcall	80002114 <sd_mmc_spi_send_and_read>
80002408:	18 96       	mov	r6,r12
8000240a:	e0 6c 00 ff 	mov	r12,255
8000240e:	c8 3e       	rcall	80002114 <sd_mmc_spi_send_and_read>
80002410:	ae 8c       	st.b	r7[0x0],r12
80002412:	e0 6c 00 ff 	mov	r12,255
80002416:	c7 fe       	rcall	80002114 <sd_mmc_spi_send_and_read>
80002418:	ae 8c       	st.b	r7[0x0],r12
8000241a:	e0 6c 00 ff 	mov	r12,255
8000241e:	c7 be       	rcall	80002114 <sd_mmc_spi_send_and_read>
80002420:	30 1b       	mov	r11,1
80002422:	ae 8c       	st.b	r7[0x0],r12
80002424:	fe 7c 24 00 	mov	r12,-56320
80002428:	e0 a0 12 6e 	rcall	80004904 <spi_unselectChip>
8000242c:	f9 d6 c0 c1 	bfextu	r12,r6,0x6,0x1
80002430:	d8 22       	popm	r4-r7,pc
80002432:	d7 03       	nop

80002434 <sd_mmc_spi_get_if>:
80002434:	d4 21       	pushm	r4-r7,lr
80002436:	c8 5e       	rcall	80002140 <sd_mmc_spi_wait_not_busy>
80002438:	c3 20       	breq	8000249c <sd_mmc_spi_get_if+0x68>
8000243a:	30 1b       	mov	r11,1
8000243c:	fe 7c 24 00 	mov	r12,-56320
80002440:	e0 a0 12 3a 	rcall	800048b4 <spi_selectChip>
80002444:	e0 6b 01 aa 	mov	r11,426
80002448:	e0 67 27 54 	mov	r7,10068
8000244c:	30 8c       	mov	r12,8
8000244e:	ca fe       	rcall	800021ac <sd_mmc_spi_command>
80002450:	ae 8c       	st.b	r7[0x0],r12
80002452:	ed bc 00 02 	bld	r12,0x2
80002456:	c0 71       	brne	80002464 <sd_mmc_spi_get_if+0x30>
80002458:	30 1b       	mov	r11,1
8000245a:	fe 7c 24 00 	mov	r12,-56320
8000245e:	e0 a0 12 53 	rcall	80004904 <spi_unselectChip>
80002462:	d8 2a       	popm	r4-r7,pc,r12=0
80002464:	e0 6c 00 ff 	mov	r12,255
80002468:	c5 6e       	rcall	80002114 <sd_mmc_spi_send_and_read>
8000246a:	ae 8c       	st.b	r7[0x0],r12
8000246c:	e0 6c 00 ff 	mov	r12,255
80002470:	c5 2e       	rcall	80002114 <sd_mmc_spi_send_and_read>
80002472:	ae 8c       	st.b	r7[0x0],r12
80002474:	e0 6c 00 ff 	mov	r12,255
80002478:	c4 ee       	rcall	80002114 <sd_mmc_spi_send_and_read>
8000247a:	ae 8c       	st.b	r7[0x0],r12
8000247c:	ed bc 00 00 	bld	r12,0x0
80002480:	c0 91       	brne	80002492 <sd_mmc_spi_get_if+0x5e>
80002482:	e0 6c 00 ff 	mov	r12,255
80002486:	c4 7e       	rcall	80002114 <sd_mmc_spi_send_and_read>
80002488:	ae 8c       	st.b	r7[0x0],r12
8000248a:	3a a8       	mov	r8,-86
8000248c:	f0 0c 18 00 	cp.b	r12,r8
80002490:	c0 70       	breq	8000249e <sd_mmc_spi_get_if+0x6a>
80002492:	30 1b       	mov	r11,1
80002494:	fe 7c 24 00 	mov	r12,-56320
80002498:	e0 a0 12 36 	rcall	80004904 <spi_unselectChip>
8000249c:	dc 2a       	popm	r4-r7,pc,r12=-1
8000249e:	30 1b       	mov	r11,1
800024a0:	fe 7c 24 00 	mov	r12,-56320
800024a4:	e0 a0 12 30 	rcall	80004904 <spi_unselectChip>
800024a8:	da 2a       	popm	r4-r7,pc,r12=1
800024aa:	d7 03       	nop

800024ac <sd_mmc_spi_read_sector_to_ram>:
800024ac:	d4 21       	pushm	r4-r7,lr
800024ae:	20 1d       	sub	sp,4
800024b0:	18 97       	mov	r7,r12
800024b2:	c4 7e       	rcall	80002140 <sd_mmc_spi_wait_not_busy>
800024b4:	c7 c0       	breq	800025ac <sd_mmc_spi_read_sector_to_ram+0x100>
800024b6:	30 1b       	mov	r11,1
800024b8:	fe 7c 24 00 	mov	r12,-56320
800024bc:	e0 a0 11 fc 	rcall	800048b4 <spi_selectChip>
800024c0:	e0 68 27 42 	mov	r8,10050
800024c4:	e0 66 27 54 	mov	r6,10068
800024c8:	11 8a       	ld.ub	r10,r8[0x0]
800024ca:	30 39       	mov	r9,3
800024cc:	e0 68 01 70 	mov	r8,368
800024d0:	f2 0a 18 00 	cp.b	r10,r9
800024d4:	c0 41       	brne	800024dc <sd_mmc_spi_read_sector_to_ram+0x30>
800024d6:	70 0b       	ld.w	r11,r8[0x0]
800024d8:	a9 9b       	lsr	r11,0x9
800024da:	c0 28       	rjmp	800024de <sd_mmc_spi_read_sector_to_ram+0x32>
800024dc:	70 0b       	ld.w	r11,r8[0x0]
800024de:	31 1c       	mov	r12,17
800024e0:	c6 6e       	rcall	800021ac <sd_mmc_spi_command>
800024e2:	ac 8c       	st.b	r6[0x0],r12
800024e4:	e0 64 27 54 	mov	r4,10068
800024e8:	30 08       	mov	r8,0
800024ea:	09 89       	ld.ub	r9,r4[0x0]
800024ec:	f0 09 18 00 	cp.b	r9,r8
800024f0:	c0 c0       	breq	80002508 <sd_mmc_spi_read_sector_to_ram+0x5c>
800024f2:	c1 f8       	rjmp	80002530 <sd_mmc_spi_read_sector_to_ram+0x84>
800024f4:	20 16       	sub	r6,1
800024f6:	5c 86       	casts.h	r6
800024f8:	c0 b1       	brne	8000250e <sd_mmc_spi_read_sector_to_ram+0x62>
800024fa:	30 1b       	mov	r11,1
800024fc:	fe 7c 24 00 	mov	r12,-56320
80002500:	e0 a0 12 02 	rcall	80004904 <spi_unselectChip>
80002504:	0c 9c       	mov	r12,r6
80002506:	c5 38       	rjmp	800025ac <sd_mmc_spi_read_sector_to_ram+0x100>
80002508:	e0 66 75 30 	mov	r6,30000
8000250c:	3f f5       	mov	r5,-1
8000250e:	e0 6c 00 ff 	mov	r12,255
80002512:	c0 1e       	rcall	80002114 <sd_mmc_spi_send_and_read>
80002514:	a8 8c       	st.b	r4[0x0],r12
80002516:	ea 0c 18 00 	cp.b	r12,r5
8000251a:	ce d0       	breq	800024f4 <sd_mmc_spi_read_sector_to_ram+0x48>
8000251c:	3f e8       	mov	r8,-2
8000251e:	f0 0c 18 00 	cp.b	r12,r8
80002522:	c0 e0       	breq	8000253e <sd_mmc_spi_read_sector_to_ram+0x92>
80002524:	e0 6b 00 ff 	mov	r11,255
80002528:	fe 7c 24 00 	mov	r12,-56320
8000252c:	e0 a0 12 57 	rcall	800049da <spi_write>
80002530:	30 1b       	mov	r11,1
80002532:	fe 7c 24 00 	mov	r12,-56320
80002536:	e0 a0 11 e7 	rcall	80004904 <spi_unselectChip>
8000253a:	30 0c       	mov	r12,0
8000253c:	c3 88       	rjmp	800025ac <sd_mmc_spi_read_sector_to_ram+0x100>
8000253e:	fa c5 ff fe 	sub	r5,sp,-2
80002542:	ee c6 fe 00 	sub	r6,r7,-512
80002546:	e0 6b 00 ff 	mov	r11,255
8000254a:	fe 7c 24 00 	mov	r12,-56320
8000254e:	e0 a0 12 46 	rcall	800049da <spi_write>
80002552:	0a 9b       	mov	r11,r5
80002554:	fe 7c 24 00 	mov	r12,-56320
80002558:	e0 a0 12 4f 	rcall	800049f6 <spi_read>
8000255c:	9a 18       	ld.sh	r8,sp[0x2]
8000255e:	0e c8       	st.b	r7++,r8
80002560:	0c 37       	cp.w	r7,r6
80002562:	cf 21       	brne	80002546 <sd_mmc_spi_read_sector_to_ram+0x9a>
80002564:	e0 68 01 70 	mov	r8,368
80002568:	70 09       	ld.w	r9,r8[0x0]
8000256a:	f2 c9 fe 00 	sub	r9,r9,-512
8000256e:	e0 6b 00 ff 	mov	r11,255
80002572:	91 09       	st.w	r8[0x0],r9
80002574:	fe 7c 24 00 	mov	r12,-56320
80002578:	e0 a0 12 31 	rcall	800049da <spi_write>
8000257c:	e0 6b 00 ff 	mov	r11,255
80002580:	fe 7c 24 00 	mov	r12,-56320
80002584:	e0 a0 12 2b 	rcall	800049da <spi_write>
80002588:	e0 6b 00 ff 	mov	r11,255
8000258c:	fe 7c 24 00 	mov	r12,-56320
80002590:	e0 a0 12 25 	rcall	800049da <spi_write>
80002594:	e0 6b 00 ff 	mov	r11,255
80002598:	fe 7c 24 00 	mov	r12,-56320
8000259c:	e0 a0 12 1f 	rcall	800049da <spi_write>
800025a0:	30 1b       	mov	r11,1
800025a2:	fe 7c 24 00 	mov	r12,-56320
800025a6:	e0 a0 11 af 	rcall	80004904 <spi_unselectChip>
800025aa:	30 1c       	mov	r12,1
800025ac:	2f fd       	sub	sp,-4
800025ae:	d8 22       	popm	r4-r7,pc

800025b0 <sd_mmc_spi_get_csd>:
800025b0:	d4 31       	pushm	r0-r7,lr
800025b2:	20 1d       	sub	sp,4
800025b4:	18 95       	mov	r5,r12
800025b6:	fe b0 fd c5 	rcall	80002140 <sd_mmc_spi_wait_not_busy>
800025ba:	c5 c0       	breq	80002672 <sd_mmc_spi_get_csd+0xc2>
800025bc:	30 1b       	mov	r11,1
800025be:	fe 7c 24 00 	mov	r12,-56320
800025c2:	e0 a0 11 79 	rcall	800048b4 <spi_selectChip>
800025c6:	30 0b       	mov	r11,0
800025c8:	30 9c       	mov	r12,9
800025ca:	e0 63 27 54 	mov	r3,10068
800025ce:	fe b0 fd ef 	rcall	800021ac <sd_mmc_spi_command>
800025d2:	a6 8c       	st.b	r3[0x0],r12
800025d4:	c0 51       	brne	800025de <sd_mmc_spi_get_csd+0x2e>
800025d6:	18 97       	mov	r7,r12
800025d8:	3f e4       	mov	r4,-2
800025da:	30 96       	mov	r6,9
800025dc:	c1 78       	rjmp	8000260a <sd_mmc_spi_get_csd+0x5a>
800025de:	30 1b       	mov	r11,1
800025e0:	fe 7c 24 00 	mov	r12,-56320
800025e4:	e0 a0 11 90 	rcall	80004904 <spi_unselectChip>
800025e8:	30 09       	mov	r9,0
800025ea:	e0 68 03 88 	mov	r8,904
800025ee:	b0 89       	st.b	r8[0x0],r9
800025f0:	c0 98       	rjmp	80002602 <sd_mmc_spi_get_csd+0x52>
800025f2:	ec 07 18 00 	cp.b	r7,r6
800025f6:	c0 81       	brne	80002606 <sd_mmc_spi_get_csd+0x56>
800025f8:	30 1b       	mov	r11,1
800025fa:	fe 7c 24 00 	mov	r12,-56320
800025fe:	e0 a0 11 83 	rcall	80004904 <spi_unselectChip>
80002602:	30 0c       	mov	r12,0
80002604:	c3 78       	rjmp	80002672 <sd_mmc_spi_get_csd+0xc2>
80002606:	2f f7       	sub	r7,-1
80002608:	5c 57       	castu.b	r7
8000260a:	e0 6c 00 ff 	mov	r12,255
8000260e:	fe b0 fd 83 	rcall	80002114 <sd_mmc_spi_send_and_read>
80002612:	a6 8c       	st.b	r3[0x0],r12
80002614:	e8 0c 18 00 	cp.b	r12,r4
80002618:	ce d1       	brne	800025f2 <sd_mmc_spi_get_csd+0x42>
8000261a:	30 07       	mov	r7,0
8000261c:	fa c6 ff fe 	sub	r6,sp,-2
80002620:	e0 6b 00 ff 	mov	r11,255
80002624:	fe 7c 24 00 	mov	r12,-56320
80002628:	e0 a0 11 d9 	rcall	800049da <spi_write>
8000262c:	0c 9b       	mov	r11,r6
8000262e:	fe 7c 24 00 	mov	r12,-56320
80002632:	e0 a0 11 e2 	rcall	800049f6 <spi_read>
80002636:	9a 18       	ld.sh	r8,sp[0x2]
80002638:	ea 07 0b 08 	st.b	r5[r7],r8
8000263c:	2f f7       	sub	r7,-1
8000263e:	59 07       	cp.w	r7,16
80002640:	cf 01       	brne	80002620 <sd_mmc_spi_get_csd+0x70>
80002642:	e0 6b 00 ff 	mov	r11,255
80002646:	fe 7c 24 00 	mov	r12,-56320
8000264a:	e0 a0 11 c8 	rcall	800049da <spi_write>
8000264e:	e0 6b 00 ff 	mov	r11,255
80002652:	fe 7c 24 00 	mov	r12,-56320
80002656:	e0 a0 11 c2 	rcall	800049da <spi_write>
8000265a:	e0 6b 00 ff 	mov	r11,255
8000265e:	fe 7c 24 00 	mov	r12,-56320
80002662:	e0 a0 11 bc 	rcall	800049da <spi_write>
80002666:	30 1b       	mov	r11,1
80002668:	fe 7c 24 00 	mov	r12,-56320
8000266c:	e0 a0 11 4c 	rcall	80004904 <spi_unselectChip>
80002670:	30 1c       	mov	r12,1
80002672:	2f fd       	sub	sp,-4
80002674:	d8 32       	popm	r0-r7,pc
80002676:	d7 03       	nop

80002678 <sd_mmc_spi_write_multiple_sector>:
80002678:	d4 21       	pushm	r4-r7,lr
8000267a:	18 97       	mov	r7,r12
8000267c:	c0 88       	rjmp	8000268c <sd_mmc_spi_write_multiple_sector+0x14>
8000267e:	e0 a0 0d f9 	rcall	80004270 <sd_mmc_spi_write_multiple_sector_callback>
80002682:	e0 6c 01 74 	mov	r12,372
80002686:	c2 7e       	rcall	800022d4 <sd_mmc_spi_write_sector_from_ram>
80002688:	20 17       	sub	r7,1
8000268a:	5c 87       	casts.h	r7
8000268c:	e0 6c 01 74 	mov	r12,372
80002690:	58 07       	cp.w	r7,0
80002692:	cf 61       	brne	8000267e <sd_mmc_spi_write_multiple_sector+0x6>
80002694:	da 2a       	popm	r4-r7,pc,r12=1
80002696:	d7 03       	nop

80002698 <sd_mmc_spi_read_multiple_sector>:
80002698:	d4 21       	pushm	r4-r7,lr
8000269a:	18 97       	mov	r7,r12
8000269c:	c0 88       	rjmp	800026ac <sd_mmc_spi_read_multiple_sector+0x14>
8000269e:	c0 7f       	rcall	800024ac <sd_mmc_spi_read_sector_to_ram>
800026a0:	e0 6c 01 74 	mov	r12,372
800026a4:	e0 a0 0d f0 	rcall	80004284 <sd_mmc_spi_read_multiple_sector_callback>
800026a8:	20 17       	sub	r7,1
800026aa:	5c 87       	casts.h	r7
800026ac:	e0 6c 01 74 	mov	r12,372
800026b0:	58 07       	cp.w	r7,0
800026b2:	cf 61       	brne	8000269e <sd_mmc_spi_read_multiple_sector+0x6>
800026b4:	da 2a       	popm	r4-r7,pc,r12=1
800026b6:	d7 03       	nop

800026b8 <sd_mmc_spi_internal_init>:
800026b8:	d4 31       	pushm	r0-r7,lr
800026ba:	e0 68 03 74 	mov	r8,884
800026be:	e6 69 1a 80 	mov	r9,400000
800026c2:	10 9b       	mov	r11,r8
800026c4:	91 19       	st.w	r8[0x4],r9
800026c6:	e0 68 03 84 	mov	r8,900
800026ca:	fe 7c 24 00 	mov	r12,-56320
800026ce:	70 0a       	ld.w	r10,r8[0x0]
800026d0:	e0 a0 11 2e 	rcall	8000492c <spi_setupChipReg>
800026d4:	30 1b       	mov	r11,1
800026d6:	fe 7c 24 00 	mov	r12,-56320
800026da:	e0 a0 10 ed 	rcall	800048b4 <spi_selectChip>
800026de:	30 07       	mov	r7,0
800026e0:	2f f7       	sub	r7,-1
800026e2:	e0 6b 00 ff 	mov	r11,255
800026e6:	fe 7c 24 00 	mov	r12,-56320
800026ea:	e0 a0 11 78 	rcall	800049da <spi_write>
800026ee:	58 a7       	cp.w	r7,10
800026f0:	cf 81       	brne	800026e0 <sd_mmc_spi_internal_init+0x28>
800026f2:	30 1b       	mov	r11,1
800026f4:	fe 7c 24 00 	mov	r12,-56320
800026f8:	e0 a0 11 06 	rcall	80004904 <spi_unselectChip>
800026fc:	e0 69 03 88 	mov	r9,904
80002700:	30 08       	mov	r8,0
80002702:	30 06       	mov	r6,0
80002704:	b2 88       	st.b	r9[0x0],r8
80002706:	e0 64 27 54 	mov	r4,10068
8000270a:	e0 69 27 42 	mov	r9,10050
8000270e:	36 52       	mov	r2,101
80002710:	b2 88       	st.b	r9[0x0],r8
80002712:	30 13       	mov	r3,1
80002714:	30 0b       	mov	r11,0
80002716:	16 9c       	mov	r12,r11
80002718:	fe b0 fd 9c 	rcall	80002250 <sd_mmc_spi_send_command>
8000271c:	e0 6b 00 ff 	mov	r11,255
80002720:	a8 8c       	st.b	r4[0x0],r12
80002722:	2f f6       	sub	r6,-1
80002724:	fe 7c 24 00 	mov	r12,-56320
80002728:	5c 86       	casts.h	r6
8000272a:	e0 a0 11 58 	rcall	800049da <spi_write>
8000272e:	e0 67 27 54 	mov	r7,10068
80002732:	e4 06 19 00 	cp.h	r6,r2
80002736:	e0 80 00 c5 	breq	800028c0 <sd_mmc_spi_internal_init+0x208>
8000273a:	09 85       	ld.ub	r5,r4[0x0]
8000273c:	e6 05 18 00 	cp.b	r5,r3
80002740:	ce a1       	brne	80002714 <sd_mmc_spi_internal_init+0x5c>
80002742:	c7 9e       	rcall	80002434 <sd_mmc_spi_get_if>
80002744:	5b fc       	cp.w	r12,-1
80002746:	e0 80 00 bd 	breq	800028c0 <sd_mmc_spi_internal_init+0x208>
8000274a:	58 1c       	cp.w	r12,1
8000274c:	c0 61       	brne	80002758 <sd_mmc_spi_internal_init+0xa0>
8000274e:	30 29       	mov	r9,2
80002750:	e0 68 27 42 	mov	r8,10050
80002754:	b0 89       	st.b	r8[0x0],r9
80002756:	c3 98       	rjmp	800027c8 <sd_mmc_spi_internal_init+0x110>
80002758:	30 0b       	mov	r11,0
8000275a:	33 7c       	mov	r12,55
8000275c:	fe b0 fd 7a 	rcall	80002250 <sd_mmc_spi_send_command>
80002760:	e0 6b 00 ff 	mov	r11,255
80002764:	ae 8c       	st.b	r7[0x0],r12
80002766:	fe 7c 24 00 	mov	r12,-56320
8000276a:	e0 a0 11 38 	rcall	800049da <spi_write>
8000276e:	30 0b       	mov	r11,0
80002770:	32 9c       	mov	r12,41
80002772:	fe b0 fd 6f 	rcall	80002250 <sd_mmc_spi_send_command>
80002776:	e0 6b 00 ff 	mov	r11,255
8000277a:	ae 8c       	st.b	r7[0x0],r12
8000277c:	fe 7c 24 00 	mov	r12,-56320
80002780:	e0 a0 11 2d 	rcall	800049da <spi_write>
80002784:	0f 88       	ld.ub	r8,r7[0x0]
80002786:	e0 69 27 42 	mov	r9,10050
8000278a:	e2 18 00 fe 	andl	r8,0xfe,COH
8000278e:	c0 31       	brne	80002794 <sd_mmc_spi_internal_init+0xdc>
80002790:	b2 85       	st.b	r9[0x0],r5
80002792:	c1 b8       	rjmp	800027c8 <sd_mmc_spi_internal_init+0x110>
80002794:	30 08       	mov	r8,0
80002796:	30 06       	mov	r6,0
80002798:	b2 88       	st.b	r9[0x0],r8
8000279a:	36 54       	mov	r4,101
8000279c:	30 15       	mov	r5,1
8000279e:	30 0b       	mov	r11,0
800027a0:	16 9c       	mov	r12,r11
800027a2:	fe b0 fd 57 	rcall	80002250 <sd_mmc_spi_send_command>
800027a6:	e0 6b 00 ff 	mov	r11,255
800027aa:	ae 8c       	st.b	r7[0x0],r12
800027ac:	2f f6       	sub	r6,-1
800027ae:	fe 7c 24 00 	mov	r12,-56320
800027b2:	5c 86       	casts.h	r6
800027b4:	e0 a0 11 13 	rcall	800049da <spi_write>
800027b8:	e8 06 19 00 	cp.h	r6,r4
800027bc:	e0 80 00 82 	breq	800028c0 <sd_mmc_spi_internal_init+0x208>
800027c0:	0f 88       	ld.ub	r8,r7[0x0]
800027c2:	ea 08 18 00 	cp.b	r8,r5
800027c6:	ce c1       	brne	8000279e <sd_mmc_spi_internal_init+0xe6>
800027c8:	30 06       	mov	r6,0
800027ca:	e0 64 27 42 	mov	r4,10050
800027ce:	30 15       	mov	r5,1
800027d0:	e0 67 27 54 	mov	r7,10068
800027d4:	09 88       	ld.ub	r8,r4[0x0]
800027d6:	ea 08 18 00 	cp.b	r8,r5
800027da:	c0 90       	breq	800027ec <sd_mmc_spi_internal_init+0x134>
800027dc:	30 0b       	mov	r11,0
800027de:	30 1c       	mov	r12,1
800027e0:	c1 43       	brcs	80002808 <sd_mmc_spi_internal_init+0x150>
800027e2:	30 29       	mov	r9,2
800027e4:	f2 08 18 00 	cp.b	r8,r9
800027e8:	c1 91       	brne	8000281a <sd_mmc_spi_internal_init+0x162>
800027ea:	c0 78       	rjmp	800027f8 <sd_mmc_spi_internal_init+0x140>
800027ec:	30 0b       	mov	r11,0
800027ee:	33 7c       	mov	r12,55
800027f0:	fe b0 fd 30 	rcall	80002250 <sd_mmc_spi_send_command>
800027f4:	30 0b       	mov	r11,0
800027f6:	c0 88       	rjmp	80002806 <sd_mmc_spi_internal_init+0x14e>
800027f8:	30 0b       	mov	r11,0
800027fa:	33 7c       	mov	r12,55
800027fc:	fe b0 fd 2a 	rcall	80002250 <sd_mmc_spi_send_command>
80002800:	30 0b       	mov	r11,0
80002802:	ea 1b 40 00 	orh	r11,0x4000
80002806:	32 9c       	mov	r12,41
80002808:	fe b0 fd 24 	rcall	80002250 <sd_mmc_spi_send_command>
8000280c:	e0 6b 00 ff 	mov	r11,255
80002810:	ae 8c       	st.b	r7[0x0],r12
80002812:	fe 7c 24 00 	mov	r12,-56320
80002816:	e0 a0 10 e2 	rcall	800049da <spi_write>
8000281a:	2f f6       	sub	r6,-1
8000281c:	fe 78 c3 50 	mov	r8,-15536
80002820:	5c 86       	casts.h	r6
80002822:	f0 06 19 00 	cp.h	r6,r8
80002826:	c4 d0       	breq	800028c0 <sd_mmc_spi_internal_init+0x208>
80002828:	0f 89       	ld.ub	r9,r7[0x0]
8000282a:	30 08       	mov	r8,0
8000282c:	f0 09 18 00 	cp.b	r9,r8
80002830:	cd 21       	brne	800027d4 <sd_mmc_spi_internal_init+0x11c>
80002832:	e0 67 27 42 	mov	r7,10050
80002836:	30 28       	mov	r8,2
80002838:	0f 89       	ld.ub	r9,r7[0x0]
8000283a:	f0 09 18 00 	cp.b	r9,r8
8000283e:	c0 91       	brne	80002850 <sd_mmc_spi_internal_init+0x198>
80002840:	fe b0 fd cc 	rcall	800023d8 <sd_mmc_spi_check_hc>
80002844:	5b fc       	cp.w	r12,-1
80002846:	c3 d0       	breq	800028c0 <sd_mmc_spi_internal_init+0x208>
80002848:	58 1c       	cp.w	r12,1
8000284a:	c0 31       	brne	80002850 <sd_mmc_spi_internal_init+0x198>
8000284c:	30 38       	mov	r8,3
8000284e:	ae 88       	st.b	r7[0x0],r8
80002850:	30 0b       	mov	r11,0
80002852:	33 bc       	mov	r12,59
80002854:	fe b0 fc fe 	rcall	80002250 <sd_mmc_spi_send_command>
80002858:	e0 6b 00 ff 	mov	r11,255
8000285c:	e0 67 27 54 	mov	r7,10068
80002860:	ae 8c       	st.b	r7[0x0],r12
80002862:	fe 7c 24 00 	mov	r12,-56320
80002866:	e0 a0 10 ba 	rcall	800049da <spi_write>
8000286a:	e0 6b 02 00 	mov	r11,512
8000286e:	31 0c       	mov	r12,16
80002870:	fe b0 fc f0 	rcall	80002250 <sd_mmc_spi_send_command>
80002874:	e0 6b 00 ff 	mov	r11,255
80002878:	ae 8c       	st.b	r7[0x0],r12
8000287a:	fe 7c 24 00 	mov	r12,-56320
8000287e:	e0 a0 10 ae 	rcall	800049da <spi_write>
80002882:	0f 89       	ld.ub	r9,r7[0x0]
80002884:	30 08       	mov	r8,0
80002886:	f0 09 18 00 	cp.b	r9,r8
8000288a:	c1 b1       	brne	800028c0 <sd_mmc_spi_internal_init+0x208>
8000288c:	e0 6c 27 44 	mov	r12,10052
80002890:	c9 0e       	rcall	800025b0 <sd_mmc_spi_get_csd>
80002892:	c1 70       	breq	800028c0 <sd_mmc_spi_internal_init+0x208>
80002894:	fe b0 fb ba 	rcall	80002008 <sd_mmc_spi_get_capacity>
80002898:	e0 68 03 74 	mov	r8,884
8000289c:	e0 69 03 88 	mov	r9,904
800028a0:	10 9b       	mov	r11,r8
800028a2:	30 1a       	mov	r10,1
800028a4:	b2 8a       	st.b	r9[0x0],r10
800028a6:	e0 69 1b 00 	mov	r9,6912
800028aa:	ea 19 00 b7 	orh	r9,0xb7
800028ae:	91 19       	st.w	r8[0x4],r9
800028b0:	e0 68 03 84 	mov	r8,900
800028b4:	fe 7c 24 00 	mov	r12,-56320
800028b8:	70 0a       	ld.w	r10,r8[0x0]
800028ba:	e0 a0 10 39 	rcall	8000492c <spi_setupChipReg>
800028be:	da 3a       	popm	r0-r7,pc,r12=1
800028c0:	d8 3a       	popm	r0-r7,pc,r12=0
800028c2:	d7 03       	nop

800028c4 <sd_mmc_spi_mem_check>:
800028c4:	d4 01       	pushm	lr
800028c6:	fe b0 fc db 	rcall	8000227c <sd_mmc_spi_check_presence>
800028ca:	c0 a0       	breq	800028de <sd_mmc_spi_mem_check+0x1a>
800028cc:	e0 68 03 88 	mov	r8,904
800028d0:	11 89       	ld.ub	r9,r8[0x0]
800028d2:	30 08       	mov	r8,0
800028d4:	f0 09 18 00 	cp.b	r9,r8
800028d8:	c0 20       	breq	800028dc <sd_mmc_spi_mem_check+0x18>
800028da:	da 0a       	popm	pc,r12=1
800028dc:	ce ee       	rcall	800026b8 <sd_mmc_spi_internal_init>
800028de:	d8 02       	popm	pc

800028e0 <sd_mmc_spi_init>:
800028e0:	d4 21       	pushm	r4-r7,lr
800028e2:	e0 68 03 74 	mov	r8,884
800028e6:	fa c4 ff ec 	sub	r4,sp,-20
800028ea:	e8 ea 00 08 	ld.d	r10,r4[8]
800028ee:	f0 eb 00 08 	st.d	r8[8],r10
800028f2:	e0 69 03 84 	mov	r9,900
800028f6:	93 0c       	st.w	r9[0x0],r12
800028f8:	e8 ea 00 00 	ld.d	r10,r4[0]
800028fc:	f0 eb 00 00 	st.d	r8[0],r10
80002900:	cd ce       	rcall	800026b8 <sd_mmc_spi_internal_init>
80002902:	d8 22       	popm	r4-r7,pc

80002904 <fat_check_is_file>:
80002904:	e0 68 27 5c 	mov	r8,10076
80002908:	11 a8       	ld.ub	r8,r8[0x2]
8000290a:	e2 18 00 18 	andl	r8,0x18,COH
8000290e:	c0 21       	brne	80002912 <fat_check_is_file+0xe>
80002910:	5e ff       	retal	1
80002912:	31 39       	mov	r9,19
80002914:	e0 68 29 e4 	mov	r8,10724
80002918:	30 0c       	mov	r12,0
8000291a:	b0 89       	st.b	r8[0x0],r9
8000291c:	5e fc       	retal	r12
8000291e:	d7 03       	nop

80002920 <fat_checkcluster>:
80002920:	e0 68 2a 34 	mov	r8,10804
80002924:	70 18       	ld.w	r8,r8[0x4]
80002926:	58 08       	cp.w	r8,0
80002928:	c0 21       	brne	8000292c <fat_checkcluster+0xc>
8000292a:	5e ff       	retal	1
8000292c:	e0 69 29 e0 	mov	r9,10720
80002930:	30 3a       	mov	r10,3
80002932:	13 89       	ld.ub	r9,r9[0x0]
80002934:	f4 09 18 00 	cp.b	r9,r10
80002938:	c0 a1       	brne	8000294c <fat_checkcluster+0x2c>
8000293a:	e0 69 ff f7 	mov	r9,65527
8000293e:	ea 19 0f ff 	orh	r9,0xfff
80002942:	12 38       	cp.w	r8,r9
80002944:	e0 8b 00 19 	brhi	80002976 <fat_checkcluster+0x56>
80002948:	5f 0c       	sreq	r12
8000294a:	5e fc       	retal	r12
8000294c:	30 2a       	mov	r10,2
8000294e:	f4 09 18 00 	cp.b	r9,r10
80002952:	c0 71       	brne	80002960 <fat_checkcluster+0x40>
80002954:	e0 48 ff f7 	cp.w	r8,65527
80002958:	e0 8b 00 0f 	brhi	80002976 <fat_checkcluster+0x56>
8000295c:	5f 0c       	sreq	r12
8000295e:	5e fc       	retal	r12
80002960:	30 1a       	mov	r10,1
80002962:	f4 09 18 00 	cp.b	r9,r10
80002966:	c0 20       	breq	8000296a <fat_checkcluster+0x4a>
80002968:	5e fd       	retal	0
8000296a:	e0 48 0f f7 	cp.w	r8,4087
8000296e:	e0 8b 00 04 	brhi	80002976 <fat_checkcluster+0x56>
80002972:	5f 0c       	sreq	r12
80002974:	5e fc       	retal	r12
80002976:	30 2c       	mov	r12,2
80002978:	5e fc       	retal	r12
8000297a:	d7 03       	nop

8000297c <fat_cache_clusterlist_reset>:
8000297c:	3f f9       	mov	r9,-1
8000297e:	e0 68 27 70 	mov	r8,10096
80002982:	f1 69 00 15 	st.b	r8[21],r9
80002986:	b0 a9       	st.b	r8[0x2],r9
80002988:	b0 99       	st.b	r8[0x1],r9
8000298a:	f1 69 00 16 	st.b	r8[22],r9
8000298e:	30 09       	mov	r9,0
80002990:	f1 69 00 14 	st.b	r8[20],r9
80002994:	e0 6a 29 e6 	mov	r10,10726
80002998:	b4 89       	st.b	r10[0x0],r9
8000299a:	30 19       	mov	r9,1
8000299c:	b0 89       	st.b	r8[0x0],r9
8000299e:	5e fc       	retal	r12

800029a0 <fat_cache_clusterlist_update_finish>:
800029a0:	d4 21       	pushm	r4-r7,lr
800029a2:	e0 68 29 98 	mov	r8,10648
800029a6:	e0 6e 2a 3c 	mov	lr,10812
800029aa:	11 8b       	ld.ub	r11,r8[0x0]
800029ac:	11 95       	ld.ub	r5,r8[0x1]
800029ae:	e0 6a 27 70 	mov	r10,10096
800029b2:	e0 69 29 e6 	mov	r9,10726
800029b6:	13 89       	ld.ub	r9,r9[0x0]
800029b8:	f2 09 00 28 	add	r8,r9,r9<<0x2
800029bc:	f4 08 00 28 	add	r8,r10,r8<<0x2
800029c0:	f0 cc ff f8 	sub	r12,r8,-8
800029c4:	7c 16       	ld.w	r6,lr[0x4]
800029c6:	b0 ab       	st.b	r8[0x2],r11
800029c8:	7c 07       	ld.w	r7,lr[0x0]
800029ca:	78 0e       	ld.w	lr,r12[0x0]
800029cc:	fc 05 0d 04 	divu	r4,lr,r5
800029d0:	f7 d5 c0 08 	bfextu	r11,r5,0x0,0x8
800029d4:	16 1e       	sub	lr,r11
800029d6:	16 17       	sub	r7,r11
800029d8:	99 0e       	st.w	r12[0x0],lr
800029da:	91 37       	st.w	r8[0xc],r7
800029dc:	f6 06 00 0c 	add	r12,r11,r6
800029e0:	91 4c       	st.w	r8[0x10],r12
800029e2:	11 9b       	ld.ub	r11,r8[0x1]
800029e4:	11 8c       	ld.ub	r12,r8[0x0]
800029e6:	15 88       	ld.ub	r8,r10[0x0]
800029e8:	f8 08 18 00 	cp.b	r8,r12
800029ec:	c0 81       	brne	800029fc <fat_cache_clusterlist_update_finish+0x5c>
800029ee:	15 98       	ld.ub	r8,r10[0x1]
800029f0:	f0 0b 18 00 	cp.b	r11,r8
800029f4:	e0 88 00 04 	brls	800029fc <fat_cache_clusterlist_update_finish+0x5c>
800029f8:	2f f8       	sub	r8,-1
800029fa:	b4 98       	st.b	r10[0x1],r8
800029fc:	e0 68 27 70 	mov	r8,10096
80002a00:	f1 3a 00 14 	ld.ub	r10,r8[20]
80002a04:	f8 0a 18 00 	cp.b	r10,r12
80002a08:	c0 a1       	brne	80002a1c <fat_cache_clusterlist_update_finish+0x7c>
80002a0a:	f1 3a 00 15 	ld.ub	r10,r8[21]
80002a0e:	f4 0b 18 00 	cp.b	r11,r10
80002a12:	e0 88 00 05 	brls	80002a1c <fat_cache_clusterlist_update_finish+0x7c>
80002a16:	2f fa       	sub	r10,-1
80002a18:	f1 6a 00 15 	st.b	r8[21],r10
80002a1c:	e0 68 27 70 	mov	r8,10096
80002a20:	f2 09 00 29 	add	r9,r9,r9<<0x2
80002a24:	f0 09 00 29 	add	r9,r8,r9<<0x2
80002a28:	30 08       	mov	r8,0
80002a2a:	b2 98       	st.b	r9[0x1],r8
80002a2c:	d8 22       	popm	r4-r7,pc
80002a2e:	d7 03       	nop

80002a30 <fat_cache_clusterlist_update_read>:
80002a30:	d4 31       	pushm	r0-r7,lr
80002a32:	e0 68 29 98 	mov	r8,10648
80002a36:	11 87       	ld.ub	r7,r8[0x0]
80002a38:	e0 68 2a 34 	mov	r8,10804
80002a3c:	70 0b       	ld.w	r11,r8[0x0]
80002a3e:	e0 68 2a 3c 	mov	r8,10812
80002a42:	70 19       	ld.w	r9,r8[0x4]
80002a44:	e0 68 27 70 	mov	r8,10096
80002a48:	11 8e       	ld.ub	lr,r8[0x0]
80002a4a:	f8 0e 18 00 	cp.b	lr,r12
80002a4e:	c0 f1       	brne	80002a6c <fat_cache_clusterlist_update_read+0x3c>
80002a50:	11 aa       	ld.ub	r10,r8[0x2]
80002a52:	0e 96       	mov	r6,r7
80002a54:	ee 0a 18 00 	cp.b	r10,r7
80002a58:	c0 a1       	brne	80002a6c <fat_cache_clusterlist_update_read+0x3c>
80002a5a:	70 1a       	ld.w	r10,r8[0x4]
80002a5c:	16 3a       	cp.w	r10,r11
80002a5e:	c0 71       	brne	80002a6c <fat_cache_clusterlist_update_read+0x3c>
80002a60:	70 2a       	ld.w	r10,r8[0x8]
80002a62:	12 3a       	cp.w	r10,r9
80002a64:	e0 8b 00 04 	brhi	80002a6c <fat_cache_clusterlist_update_read+0x3c>
80002a68:	30 08       	mov	r8,0
80002a6a:	c1 58       	rjmp	80002a94 <fat_cache_clusterlist_update_read+0x64>
80002a6c:	e0 68 27 70 	mov	r8,10096
80002a70:	f1 3a 00 14 	ld.ub	r10,r8[20]
80002a74:	f8 0a 18 00 	cp.b	r10,r12
80002a78:	c7 21       	brne	80002b5c <fat_cache_clusterlist_update_read+0x12c>
80002a7a:	f1 3a 00 16 	ld.ub	r10,r8[22]
80002a7e:	ee 0a 18 00 	cp.b	r10,r7
80002a82:	c6 d1       	brne	80002b5c <fat_cache_clusterlist_update_read+0x12c>
80002a84:	70 6a       	ld.w	r10,r8[0x18]
80002a86:	16 3a       	cp.w	r10,r11
80002a88:	c6 a1       	brne	80002b5c <fat_cache_clusterlist_update_read+0x12c>
80002a8a:	70 7a       	ld.w	r10,r8[0x1c]
80002a8c:	12 3a       	cp.w	r10,r9
80002a8e:	e0 8b 00 67 	brhi	80002b5c <fat_cache_clusterlist_update_read+0x12c>
80002a92:	30 18       	mov	r8,1
80002a94:	f2 0a 01 05 	sub	r5,r9,r10
80002a98:	e0 66 27 70 	mov	r6,10096
80002a9c:	f0 0a 15 02 	lsl	r10,r8,0x2
80002aa0:	e0 67 2a 3c 	mov	r7,10812
80002aa4:	10 0a       	add	r10,r8
80002aa6:	e0 63 29 e6 	mov	r3,10726
80002aaa:	ec 0a 00 2a 	add	r10,r6,r10<<0x2
80002aae:	74 4b       	ld.w	r11,r10[0x10]
80002ab0:	f4 c4 ff f4 	sub	r4,r10,-12
80002ab4:	0a 3b       	cp.w	r11,r5
80002ab6:	e0 88 00 2d 	brls	80002b10 <fat_cache_clusterlist_update_read+0xe0>
80002aba:	0a 1b       	sub	r11,r5
80002abc:	a6 88       	st.b	r3[0x0],r8
80002abe:	8f 1b       	st.w	r7[0x4],r11
80002ac0:	68 09       	ld.w	r9,r4[0x0]
80002ac2:	12 05       	add	r5,r9
80002ac4:	8f 05       	st.w	r7[0x0],r5
80002ac6:	15 9b       	ld.ub	r11,r10[0x1]
80002ac8:	f8 0e 18 00 	cp.b	lr,r12
80002acc:	c0 81       	brne	80002adc <fat_cache_clusterlist_update_read+0xac>
80002ace:	0d 99       	ld.ub	r9,r6[0x1]
80002ad0:	f2 0b 18 00 	cp.b	r11,r9
80002ad4:	e0 88 00 04 	brls	80002adc <fat_cache_clusterlist_update_read+0xac>
80002ad8:	2f f9       	sub	r9,-1
80002ada:	ac 99       	st.b	r6[0x1],r9
80002adc:	e0 69 27 70 	mov	r9,10096
80002ae0:	f3 3a 00 14 	ld.ub	r10,r9[20]
80002ae4:	f8 0a 18 00 	cp.b	r10,r12
80002ae8:	c0 a1       	brne	80002afc <fat_cache_clusterlist_update_read+0xcc>
80002aea:	f3 3a 00 15 	ld.ub	r10,r9[21]
80002aee:	f4 0b 18 00 	cp.b	r11,r10
80002af2:	e0 88 00 05 	brls	80002afc <fat_cache_clusterlist_update_read+0xcc>
80002af6:	2f fa       	sub	r10,-1
80002af8:	f3 6a 00 15 	st.b	r9[21],r10
80002afc:	e0 69 27 70 	mov	r9,10096
80002b00:	f0 08 00 28 	add	r8,r8,r8<<0x2
80002b04:	30 1c       	mov	r12,1
80002b06:	f2 08 00 28 	add	r8,r9,r8<<0x2
80002b0a:	30 09       	mov	r9,0
80002b0c:	b0 99       	st.b	r8[0x1],r9
80002b0e:	d8 32       	popm	r0-r7,pc
80002b10:	a6 88       	st.b	r3[0x0],r8
80002b12:	e0 6c 29 98 	mov	r12,10648
80002b16:	f4 ce ff f8 	sub	lr,r10,-8
80002b1a:	19 98       	ld.ub	r8,r12[0x1]
80002b1c:	78 46       	ld.w	r6,r12[0x10]
80002b1e:	7c 03       	ld.w	r3,lr[0x0]
80002b20:	9d 09       	st.w	lr[0x0],r9
80002b22:	68 05       	ld.w	r5,r4[0x0]
80002b24:	f6 03 00 03 	add	r3,r11,r3
80002b28:	f6 05 00 05 	add	r5,r11,r5
80002b2c:	20 13       	sub	r3,1
80002b2e:	e6 08 0d 02 	divu	r2,r3,r8
80002b32:	f0 02 02 4b 	mul	r11,r8,r2
80002b36:	f2 0b 01 0b 	sub	r11,r9,r11
80002b3a:	3f f9       	mov	r9,-1
80002b3c:	8f 1b       	st.w	r7[0x4],r11
80002b3e:	b4 a9       	st.b	r10[0x2],r9
80002b40:	20 15       	sub	r5,1
80002b42:	78 5a       	ld.w	r10,r12[0x14]
80002b44:	ea 0a 01 09 	sub	r9,r5,r10
80002b48:	0c 19       	sub	r9,r6
80002b4a:	f2 08 0d 08 	divu	r8,r9,r8
80002b4e:	30 0c       	mov	r12,0
80002b50:	f0 c9 ff fe 	sub	r9,r8,-2
80002b54:	e0 68 2a 34 	mov	r8,10804
80002b58:	91 09       	st.w	r8[0x0],r9
80002b5a:	d8 32       	popm	r0-r7,pc
80002b5c:	fd ec 20 0a 	eor	r10,lr,r12
80002b60:	e0 68 27 70 	mov	r8,10096
80002b64:	f4 0a 00 2e 	add	lr,r10,r10<<0x2
80002b68:	fc c7 ff ff 	sub	r7,lr,-1
80002b6c:	f0 07 09 2b 	st.w	r8[r7<<0x2],r11
80002b70:	f0 0e 00 28 	add	r8,r8,lr<<0x2
80002b74:	91 29       	st.w	r8[0x8],r9
80002b76:	b0 8c       	st.b	r8[0x0],r12
80002b78:	e0 69 29 e6 	mov	r9,10726
80002b7c:	b2 8a       	st.b	r9[0x0],r10
80002b7e:	30 0c       	mov	r12,0
80002b80:	3f f9       	mov	r9,-1
80002b82:	b0 a9       	st.b	r8[0x2],r9
80002b84:	d8 32       	popm	r0-r7,pc
80002b86:	d7 03       	nop

80002b88 <fat_entry_check>:
80002b88:	e0 68 29 e0 	mov	r8,10720
80002b8c:	90 99       	ld.uh	r9,r8[0x2]
80002b8e:	e0 68 27 98 	mov	r8,10136
80002b92:	a5 79       	lsl	r9,0x5
80002b94:	e0 6a 29 e4 	mov	r10,10724
80002b98:	f3 d9 c0 09 	bfextu	r9,r9,0x0,0x9
80002b9c:	10 09       	add	r9,r8
80002b9e:	13 88       	ld.ub	r8,r9[0x0]
80002ba0:	58 08       	cp.w	r8,0
80002ba2:	c0 51       	brne	80002bac <fat_entry_check+0x24>
80002ba4:	10 9c       	mov	r12,r8
80002ba6:	30 a8       	mov	r8,10
80002ba8:	b4 88       	st.b	r10[0x0],r8
80002baa:	5e fc       	retal	r12
80002bac:	30 bb       	mov	r11,11
80002bae:	b4 8b       	st.b	r10[0x0],r11
80002bb0:	3e 5a       	mov	r10,-27
80002bb2:	f4 08 18 00 	cp.b	r8,r10
80002bb6:	c1 10       	breq	80002bd8 <fat_entry_check+0x50>
80002bb8:	32 ea       	mov	r10,46
80002bba:	f4 08 18 00 	cp.b	r8,r10
80002bbe:	c0 d0       	breq	80002bd8 <fat_entry_check+0x50>
80002bc0:	f3 38 00 0b 	ld.ub	r8,r9[11]
80002bc4:	ed b8 00 03 	bld	r8,0x3
80002bc8:	c0 80       	breq	80002bd8 <fat_entry_check+0x50>
80002bca:	ed b8 00 04 	bld	r8,0x4
80002bce:	5e 1c       	retne	r12
80002bd0:	ec 1c 00 01 	eorl	r12,0x1
80002bd4:	5c 5c       	castu.b	r12
80002bd6:	5e fc       	retal	r12
80002bd8:	5e fd       	retal	0
80002bda:	d7 03       	nop

80002bdc <fat_get_entry_info>:
80002bdc:	d4 21       	pushm	r4-r7,lr
80002bde:	e0 69 29 e0 	mov	r9,10720
80002be2:	92 9b       	ld.uh	r11,r9[0x2]
80002be4:	e0 69 27 98 	mov	r9,10136
80002be8:	a5 7b       	lsl	r11,0x5
80002bea:	f7 db c0 09 	bfextu	r11,r11,0x0,0x9
80002bee:	12 0b       	add	r11,r9
80002bf0:	f6 c9 ff e4 	sub	r9,r11,-28
80002bf4:	13 be       	ld.ub	lr,r9[0x3]
80002bf6:	e0 6c 27 5c 	mov	r12,10076
80002bfa:	f6 c7 ff ec 	sub	r7,r11,-20
80002bfe:	f8 c8 ff f8 	sub	r8,r12,-8
80002c02:	b0 8e       	st.b	r8[0x0],lr
80002c04:	0f 9e       	ld.ub	lr,r7[0x1]
80002c06:	f8 ca ff fc 	sub	r10,r12,-4
80002c0a:	b4 8e       	st.b	r10[0x0],lr
80002c0c:	f6 ce ff e6 	sub	lr,r11,-26
80002c10:	1d 96       	ld.ub	r6,lr[0x1]
80002c12:	b4 a6       	st.b	r10[0x2],r6
80002c14:	f7 3b 00 0b 	ld.ub	r11,r11[11]
80002c18:	b8 ab       	st.b	r12[0x2],r11
80002c1a:	0f 8b       	ld.ub	r11,r7[0x0]
80002c1c:	b4 9b       	st.b	r10[0x1],r11
80002c1e:	1d 8b       	ld.ub	r11,lr[0x0]
80002c20:	b4 bb       	st.b	r10[0x3],r11
80002c22:	13 8a       	ld.ub	r10,r9[0x0]
80002c24:	b0 ba       	st.b	r8[0x3],r10
80002c26:	13 9a       	ld.ub	r10,r9[0x1]
80002c28:	b0 aa       	st.b	r8[0x2],r10
80002c2a:	13 a9       	ld.ub	r9,r9[0x2]
80002c2c:	b0 99       	st.b	r8[0x1],r9
80002c2e:	d8 22       	popm	r4-r7,pc

80002c30 <fat_entry_is_dir>:
80002c30:	e0 68 29 e4 	mov	r8,10724
80002c34:	30 d9       	mov	r9,13
80002c36:	b0 89       	st.b	r8[0x0],r9
80002c38:	e0 68 27 5c 	mov	r8,10076
80002c3c:	11 ac       	ld.ub	r12,r8[0x2]
80002c3e:	f9 dc c0 81 	bfextu	r12,r12,0x4,0x1
80002c42:	5e fc       	retal	r12

80002c44 <fat_clear_entry_info_and_ptr>:
80002c44:	3f f9       	mov	r9,-1
80002c46:	e0 68 29 98 	mov	r8,10648
80002c4a:	e0 6a 29 e0 	mov	r10,10720
80002c4e:	f1 59 00 24 	st.h	r8[36],r9
80002c52:	b4 19       	st.h	r10[0x2],r9
80002c54:	f1 39 00 2d 	ld.ub	r9,r8[45]
80002c58:	58 09       	cp.w	r9,0
80002c5a:	c0 31       	brne	80002c60 <fat_clear_entry_info_and_ptr+0x1c>
80002c5c:	f1 69 00 2c 	st.b	r8[44],r9
80002c60:	e0 68 27 5c 	mov	r8,10076
80002c64:	30 09       	mov	r9,0
80002c66:	b0 89       	st.b	r8[0x0],r9
80002c68:	91 19       	st.w	r8[0x4],r9
80002c6a:	91 29       	st.w	r8[0x8],r9
80002c6c:	b0 a9       	st.b	r8[0x2],r9
80002c6e:	5e fc       	retal	r12

80002c70 <fat_entry_shortname>:
80002c70:	d4 31       	pushm	r0-r7,lr
80002c72:	e0 68 29 e4 	mov	r8,10724
80002c76:	31 69       	mov	r9,22
80002c78:	b0 89       	st.b	r8[0x0],r9
80002c7a:	e0 68 29 e0 	mov	r8,10720
80002c7e:	30 09       	mov	r9,0
80002c80:	90 93       	ld.uh	r3,r8[0x2]
80002c82:	30 14       	mov	r4,1
80002c84:	a5 73       	lsl	r3,0x5
80002c86:	e0 68 27 98 	mov	r8,10136
80002c8a:	e7 d3 c0 09 	bfextu	r3,r3,0x0,0x9
80002c8e:	12 97       	mov	r7,r9
80002c90:	10 03       	add	r3,r8
80002c92:	30 b2       	mov	r2,11
80002c94:	30 85       	mov	r5,8
80002c96:	32 06       	mov	r6,32
80002c98:	e4 09 18 00 	cp.b	r9,r2
80002c9c:	c1 80       	breq	80002ccc <fat_entry_shortname+0x5c>
80002c9e:	e6 09 07 08 	ld.ub	r8,r3[r9]
80002ca2:	ea 09 18 00 	cp.b	r9,r5
80002ca6:	c0 31       	brne	80002cac <fat_entry_shortname+0x3c>
80002ca8:	58 04       	cp.w	r4,0
80002caa:	c0 81       	brne	80002cba <fat_entry_shortname+0x4a>
80002cac:	ec 08 18 00 	cp.b	r8,r6
80002cb0:	c0 f1       	brne	80002cce <fat_entry_shortname+0x5e>
80002cb2:	ea 09 18 00 	cp.b	r9,r5
80002cb6:	e0 8b 00 0b 	brhi	80002ccc <fat_entry_shortname+0x5c>
80002cba:	e7 38 00 08 	ld.ub	r8,r3[8]
80002cbe:	ec 08 18 00 	cp.b	r8,r6
80002cc2:	c0 50       	breq	80002ccc <fat_entry_shortname+0x5c>
80002cc4:	30 79       	mov	r9,7
80002cc6:	32 e8       	mov	r8,46
80002cc8:	30 04       	mov	r4,0
80002cca:	c0 28       	rjmp	80002cce <fat_entry_shortname+0x5e>
80002ccc:	30 08       	mov	r8,0
80002cce:	58 0a       	cp.w	r10,0
80002cd0:	c1 80       	breq	80002d00 <fat_entry_shortname+0x90>
80002cd2:	e0 6e 29 e5 	mov	lr,10725
80002cd6:	1d 81       	ld.ub	r1,lr[0x0]
80002cd8:	30 0e       	mov	lr,0
80002cda:	fc 01 18 00 	cp.b	r1,lr
80002cde:	c2 d1       	brne	80002d38 <fat_entry_shortname+0xc8>
80002ce0:	f6 ce 00 01 	sub	lr,r11,1
80002ce4:	1c 37       	cp.w	r7,lr
80002ce6:	f9 b8 04 00 	movge	r8,0
80002cea:	31 9e       	mov	lr,25
80002cec:	f0 c1 00 41 	sub	r1,r8,65
80002cf0:	fc 01 18 00 	cp.b	r1,lr
80002cf4:	e0 8b 00 04 	brhi	80002cfc <fat_entry_shortname+0x8c>
80002cf8:	2e 08       	sub	r8,-32
80002cfa:	5c 58       	castu.b	r8
80002cfc:	b8 88       	st.b	r12[0x0],r8
80002cfe:	c1 d8       	rjmp	80002d38 <fat_entry_shortname+0xc8>
80002d00:	19 8e       	ld.ub	lr,r12[0x0]
80002d02:	32 a1       	mov	r1,42
80002d04:	e2 0e 18 00 	cp.b	lr,r1
80002d08:	c3 10       	breq	80002d6a <fat_entry_shortname+0xfa>
80002d0a:	58 08       	cp.w	r8,0
80002d0c:	c0 e1       	brne	80002d28 <fat_entry_shortname+0xb8>
80002d0e:	32 f1       	mov	r1,47
80002d10:	e2 0e 18 00 	cp.b	lr,r1
80002d14:	5f 10       	srne	r0
80002d16:	35 c1       	mov	r1,92
80002d18:	e2 0e 18 00 	cp.b	lr,r1
80002d1c:	5f 11       	srne	r1
80002d1e:	02 60       	and	r0,r1
80002d20:	10 91       	mov	r1,r8
80002d22:	f0 00 18 00 	cp.b	r0,r8
80002d26:	c0 b0       	breq	80002d3c <fat_entry_shortname+0xcc>
80002d28:	f0 0e 18 00 	cp.b	lr,r8
80002d2c:	c0 60       	breq	80002d38 <fat_entry_shortname+0xc8>
80002d2e:	f0 c1 ff e0 	sub	r1,r8,-32
80002d32:	02 3e       	cp.w	lr,r1
80002d34:	c0 20       	breq	80002d38 <fat_entry_shortname+0xc8>
80002d36:	d8 3a       	popm	r0-r7,pc,r12=0
80002d38:	58 08       	cp.w	r8,0
80002d3a:	c0 b1       	brne	80002d50 <fat_entry_shortname+0xe0>
80002d3c:	e0 68 29 e5 	mov	r8,10725
80002d40:	11 89       	ld.ub	r9,r8[0x0]
80002d42:	30 08       	mov	r8,0
80002d44:	f0 09 18 00 	cp.b	r9,r8
80002d48:	c1 10       	breq	80002d6a <fat_entry_shortname+0xfa>
80002d4a:	2f f7       	sub	r7,-1
80002d4c:	b8 07       	st.h	r12[0x0],r7
80002d4e:	da 3a       	popm	r0-r7,pc,r12=1
80002d50:	e0 68 29 e5 	mov	r8,10725
80002d54:	11 8e       	ld.ub	lr,r8[0x0]
80002d56:	30 08       	mov	r8,0
80002d58:	f0 0e 18 00 	cp.b	lr,r8
80002d5c:	c0 21       	brne	80002d60 <fat_entry_shortname+0xf0>
80002d5e:	2f fc       	sub	r12,-1
80002d60:	2f f7       	sub	r7,-1
80002d62:	2f f9       	sub	r9,-1
80002d64:	5c 57       	castu.b	r7
80002d66:	5c 59       	castu.b	r9
80002d68:	c9 8b       	rjmp	80002c98 <fat_entry_shortname+0x28>
80002d6a:	da 3a       	popm	r0-r7,pc,r12=1

80002d6c <fat_entry_longname>:
80002d6c:	d4 31       	pushm	r0-r7,lr
80002d6e:	20 2d       	sub	sp,8
80002d70:	e0 6e 27 98 	mov	lr,10136
80002d74:	3e 57       	mov	r7,-27
80002d76:	e0 68 29 e0 	mov	r8,10720
80002d7a:	30 06       	mov	r6,0
80002d7c:	90 98       	ld.uh	r8,r8[0x2]
80002d7e:	a5 78       	lsl	r8,0x5
80002d80:	f1 d8 c0 09 	bfextu	r8,r8,0x0,0x9
80002d84:	1c 08       	add	r8,lr
80002d86:	11 8e       	ld.ub	lr,r8[0x0]
80002d88:	ee 0e 18 00 	cp.b	lr,r7
80002d8c:	5f 05       	sreq	r5
80002d8e:	ec 0e 18 00 	cp.b	lr,r6
80002d92:	5f 07       	sreq	r7
80002d94:	0e 45       	or	r5,r7
80002d96:	0a 97       	mov	r7,r5
80002d98:	ec 05 18 00 	cp.b	r5,r6
80002d9c:	c0 71       	brne	80002daa <fat_entry_longname+0x3e>
80002d9e:	f1 35 00 0b 	ld.ub	r5,r8[11]
80002da2:	30 f6       	mov	r6,15
80002da4:	ec 05 18 00 	cp.b	r5,r6
80002da8:	c0 30       	breq	80002dae <fat_entry_longname+0x42>
80002daa:	30 b9       	mov	r9,11
80002dac:	c5 28       	rjmp	80002e50 <fat_entry_longname+0xe4>
80002dae:	e0 66 29 e5 	mov	r6,10725
80002db2:	0d 86       	ld.ub	r6,r6[0x0]
80002db4:	ee 06 18 00 	cp.b	r6,r7
80002db8:	c0 60       	breq	80002dc4 <fat_entry_longname+0x58>
80002dba:	e2 1e 00 40 	andl	lr,0x40,COH
80002dbe:	c0 31       	brne	80002dc4 <fat_entry_longname+0x58>
80002dc0:	1c 9c       	mov	r12,lr
80002dc2:	c6 f8       	rjmp	80002ea0 <fat_entry_longname+0x134>
80002dc4:	20 1b       	sub	r11,1
80002dc6:	2f f8       	sub	r8,-1
80002dc8:	50 0b       	stdsp	sp[0x0],r11
80002dca:	fa c3 ff fa 	sub	r3,sp,-6
80002dce:	30 0b       	mov	r11,0
80002dd0:	e0 64 29 e5 	mov	r4,10725
80002dd4:	16 97       	mov	r7,r11
80002dd6:	16 95       	mov	r5,r11
80002dd8:	11 8e       	ld.ub	lr,r8[0x0]
80002dda:	a6 9e       	st.b	r3[0x1],lr
80002ddc:	11 9e       	ld.ub	lr,r8[0x1]
80002dde:	a6 8e       	st.b	r3[0x0],lr
80002de0:	58 0a       	cp.w	r10,0
80002de2:	c0 e0       	breq	80002dfe <fat_entry_longname+0x92>
80002de4:	09 8e       	ld.ub	lr,r4[0x0]
80002de6:	1c 96       	mov	r6,lr
80002de8:	ee 0e 18 00 	cp.b	lr,r7
80002dec:	c3 71       	brne	80002e5a <fat_entry_longname+0xee>
80002dee:	40 06       	lddsp	r6,sp[0x0]
80002df0:	0c 3b       	cp.w	r11,r6
80002df2:	c0 35       	brlt	80002df8 <fat_entry_longname+0x8c>
80002df4:	b8 8e       	st.b	r12[0x0],lr
80002df6:	c8 b8       	rjmp	80002f0c <fat_entry_longname+0x1a0>
80002df8:	9a 3e       	ld.sh	lr,sp[0x6]
80002dfa:	b8 8e       	st.b	r12[0x0],lr
80002dfc:	c2 f8       	rjmp	80002e5a <fat_entry_longname+0xee>
80002dfe:	19 8e       	ld.ub	lr,r12[0x0]
80002e00:	32 a2       	mov	r2,42
80002e02:	e4 0e 19 00 	cp.h	lr,r2
80002e06:	e0 80 00 83 	breq	80002f0c <fat_entry_longname+0x1a0>
80002e0a:	9a 36       	ld.sh	r6,sp[0x6]
80002e0c:	58 06       	cp.w	r6,0
80002e0e:	c0 e1       	brne	80002e2a <fat_entry_longname+0xbe>
80002e10:	32 f2       	mov	r2,47
80002e12:	e4 0e 19 00 	cp.h	lr,r2
80002e16:	5f 11       	srne	r1
80002e18:	35 c2       	mov	r2,92
80002e1a:	e4 0e 19 00 	cp.h	lr,r2
80002e1e:	5f 12       	srne	r2
80002e20:	e3 e2 00 02 	and	r2,r1,r2
80002e24:	ee 02 18 00 	cp.b	r2,r7
80002e28:	c1 90       	breq	80002e5a <fat_entry_longname+0xee>
80002e2a:	e3 d6 c0 10 	bfextu	r1,r6,0x0,0x10
80002e2e:	e5 de c0 10 	bfextu	r2,lr,0x0,0x10
80002e32:	e2 c0 ff e0 	sub	r0,r1,-32
80002e36:	00 32       	cp.w	r2,r0
80002e38:	c0 31       	brne	80002e3e <fat_entry_longname+0xd2>
80002e3a:	58 09       	cp.w	r9,0
80002e3c:	c0 f0       	breq	80002e5a <fat_entry_longname+0xee>
80002e3e:	22 01       	sub	r1,32
80002e40:	02 32       	cp.w	r2,r1
80002e42:	c0 31       	brne	80002e48 <fat_entry_longname+0xdc>
80002e44:	58 09       	cp.w	r9,0
80002e46:	c0 a0       	breq	80002e5a <fat_entry_longname+0xee>
80002e48:	ec 0e 19 00 	cp.h	lr,r6
80002e4c:	c0 70       	breq	80002e5a <fat_entry_longname+0xee>
80002e4e:	31 69       	mov	r9,22
80002e50:	e0 68 29 e4 	mov	r8,10724
80002e54:	30 0c       	mov	r12,0
80002e56:	b0 89       	st.b	r8[0x0],r9
80002e58:	c5 b8       	rjmp	80002f0e <fat_entry_longname+0x1a2>
80002e5a:	9a 3e       	ld.sh	lr,sp[0x6]
80002e5c:	ea 0e 19 00 	cp.h	lr,r5
80002e60:	c0 a1       	brne	80002e74 <fat_entry_longname+0x108>
80002e62:	e0 68 29 e5 	mov	r8,10725
80002e66:	11 88       	ld.ub	r8,r8[0x0]
80002e68:	ea 08 18 00 	cp.b	r8,r5
80002e6c:	c5 00       	breq	80002f0c <fat_entry_longname+0x1a0>
80002e6e:	2f fb       	sub	r11,-1
80002e70:	b8 0b       	st.h	r12[0x0],r11
80002e72:	c4 d8       	rjmp	80002f0c <fat_entry_longname+0x1a0>
80002e74:	30 4e       	mov	lr,4
80002e76:	fc 0b 18 00 	cp.b	r11,lr
80002e7a:	c0 31       	brne	80002e80 <fat_entry_longname+0x114>
80002e7c:	2f d8       	sub	r8,-3
80002e7e:	c3 e8       	rjmp	80002efa <fat_entry_longname+0x18e>
80002e80:	30 ae       	mov	lr,10
80002e82:	fc 0b 18 00 	cp.b	r11,lr
80002e86:	c0 31       	brne	80002e8c <fat_entry_longname+0x120>
80002e88:	2f e8       	sub	r8,-2
80002e8a:	c3 88       	rjmp	80002efa <fat_entry_longname+0x18e>
80002e8c:	30 ce       	mov	lr,12
80002e8e:	fc 0b 18 00 	cp.b	r11,lr
80002e92:	c3 41       	brne	80002efa <fat_entry_longname+0x18e>
80002e94:	f1 38 ff e2 	ld.ub	r8,r8[-30]
80002e98:	e2 18 00 40 	andl	r8,0x40,COH
80002e9c:	c0 81       	brne	80002eac <fat_entry_longname+0x140>
80002e9e:	10 9c       	mov	r12,r8
80002ea0:	31 09       	mov	r9,16
80002ea2:	e0 68 29 e4 	mov	r8,10724
80002ea6:	b0 89       	st.b	r8[0x0],r9
80002ea8:	c3 38       	rjmp	80002f0e <fat_entry_longname+0x1a2>
80002eaa:	d7 03       	nop
80002eac:	58 0a       	cp.w	r10,0
80002eae:	c0 b0       	breq	80002ec4 <fat_entry_longname+0x158>
80002eb0:	e0 68 29 e5 	mov	r8,10725
80002eb4:	11 89       	ld.ub	r9,r8[0x0]
80002eb6:	30 08       	mov	r8,0
80002eb8:	f0 09 18 00 	cp.b	r9,r8
80002ebc:	c0 40       	breq	80002ec4 <fat_entry_longname+0x158>
80002ebe:	30 e8       	mov	r8,14
80002ec0:	b8 08       	st.h	r12[0x0],r8
80002ec2:	c2 58       	rjmp	80002f0c <fat_entry_longname+0x1a0>
80002ec4:	2f fc       	sub	r12,-1
80002ec6:	58 0a       	cp.w	r10,0
80002ec8:	c0 40       	breq	80002ed0 <fat_entry_longname+0x164>
80002eca:	30 08       	mov	r8,0
80002ecc:	b8 88       	st.b	r12[0x0],r8
80002ece:	c1 f8       	rjmp	80002f0c <fat_entry_longname+0x1a0>
80002ed0:	19 88       	ld.ub	r8,r12[0x0]
80002ed2:	35 cb       	mov	r11,92
80002ed4:	f4 08 19 00 	cp.h	r8,r10
80002ed8:	5f 09       	sreq	r9
80002eda:	f6 08 19 00 	cp.h	r8,r11
80002ede:	5f 0b       	sreq	r11
80002ee0:	f7 e9 10 09 	or	r9,r11,r9
80002ee4:	f4 09 18 00 	cp.b	r9,r10
80002ee8:	c0 30       	breq	80002eee <fat_entry_longname+0x182>
80002eea:	30 1c       	mov	r12,1
80002eec:	c0 58       	rjmp	80002ef6 <fat_entry_longname+0x18a>
80002eee:	32 f9       	mov	r9,47
80002ef0:	f2 08 19 00 	cp.h	r8,r9
80002ef4:	5f 0c       	sreq	r12
80002ef6:	5c 5c       	castu.b	r12
80002ef8:	c0 b8       	rjmp	80002f0e <fat_entry_longname+0x1a2>
80002efa:	09 8e       	ld.ub	lr,r4[0x0]
80002efc:	ee 0e 18 00 	cp.b	lr,r7
80002f00:	c0 21       	brne	80002f04 <fat_entry_longname+0x198>
80002f02:	2f fc       	sub	r12,-1
80002f04:	2f fb       	sub	r11,-1
80002f06:	2f e8       	sub	r8,-2
80002f08:	5c 5b       	castu.b	r11
80002f0a:	c6 7b       	rjmp	80002dd8 <fat_entry_longname+0x6c>
80002f0c:	30 1c       	mov	r12,1
80002f0e:	2f ed       	sub	sp,-8
80002f10:	d8 32       	popm	r0-r7,pc
80002f12:	d7 03       	nop

80002f14 <fat_cache_reset>:
80002f14:	3f f9       	mov	r9,-1
80002f16:	e0 68 2a 1c 	mov	r8,10780
80002f1a:	b0 89       	st.b	r8[0x0],r9
80002f1c:	30 09       	mov	r9,0
80002f1e:	f1 69 00 08 	st.b	r8[8],r9
80002f22:	3f f9       	mov	r9,-1
80002f24:	91 39       	st.w	r8[0xc],r9
80002f26:	5e fc       	retal	r12

80002f28 <fat_check_nav_access_file>:
80002f28:	d4 21       	pushm	r4-r7,lr
80002f2a:	e0 68 29 dc 	mov	r8,10716
80002f2e:	30 09       	mov	r9,0
80002f30:	11 8a       	ld.ub	r10,r8[0x0]
80002f32:	f2 0a 18 00 	cp.b	r10,r9
80002f36:	c2 c0       	breq	80002f8e <fat_check_nav_access_file+0x66>
80002f38:	e0 6b 29 98 	mov	r11,10648
80002f3c:	e0 6a 29 e8 	mov	r10,10728
80002f40:	17 87       	ld.ub	r7,r11[0x0]
80002f42:	15 8e       	ld.ub	lr,r10[0x0]
80002f44:	fc 07 18 00 	cp.b	r7,lr
80002f48:	c2 31       	brne	80002f8e <fat_check_nav_access_file+0x66>
80002f4a:	76 8b       	ld.w	r11,r11[0x20]
80002f4c:	74 8a       	ld.w	r10,r10[0x20]
80002f4e:	14 3b       	cp.w	r11,r10
80002f50:	c1 f1       	brne	80002f8e <fat_check_nav_access_file+0x66>
80002f52:	e0 6a 29 e0 	mov	r10,10720
80002f56:	90 18       	ld.sh	r8,r8[0x2]
80002f58:	94 1a       	ld.sh	r10,r10[0x2]
80002f5a:	f0 0a 19 00 	cp.h	r10,r8
80002f5e:	c1 81       	brne	80002f8e <fat_check_nav_access_file+0x66>
80002f60:	e0 68 29 cc 	mov	r8,10700
80002f64:	58 0c       	cp.w	r12,0
80002f66:	c0 b0       	breq	80002f7c <fat_check_nav_access_file+0x54>
80002f68:	11 88       	ld.ub	r8,r8[0x0]
80002f6a:	f2 08 18 00 	cp.b	r8,r9
80002f6e:	c1 00       	breq	80002f8e <fat_check_nav_access_file+0x66>
80002f70:	32 89       	mov	r9,40
80002f72:	e0 68 29 e4 	mov	r8,10724
80002f76:	30 0c       	mov	r12,0
80002f78:	b0 89       	st.b	r8[0x0],r9
80002f7a:	d8 22       	popm	r4-r7,pc
80002f7c:	11 88       	ld.ub	r8,r8[0x0]
80002f7e:	ed b8 00 01 	bld	r8,0x1
80002f82:	c0 61       	brne	80002f8e <fat_check_nav_access_file+0x66>
80002f84:	32 99       	mov	r9,41
80002f86:	e0 68 29 e4 	mov	r8,10724
80002f8a:	b0 89       	st.b	r8[0x0],r9
80002f8c:	d8 22       	popm	r4-r7,pc
80002f8e:	da 2a       	popm	r4-r7,pc,r12=1

80002f90 <fat_invert_nav>:
80002f90:	d4 21       	pushm	r4-r7,lr
80002f92:	20 dd       	sub	sp,52
80002f94:	58 0c       	cp.w	r12,0
80002f96:	c5 e0       	breq	80003052 <fat_invert_nav+0xc2>
80002f98:	e0 68 29 98 	mov	r8,10648
80002f9c:	f0 ea 00 00 	ld.d	r10,r8[0]
80002fa0:	fa eb 00 00 	st.d	sp[0],r10
80002fa4:	f0 ea 00 08 	ld.d	r10,r8[8]
80002fa8:	fa eb 00 08 	st.d	sp[8],r10
80002fac:	f0 ea 00 10 	ld.d	r10,r8[16]
80002fb0:	fa eb 00 10 	st.d	sp[16],r10
80002fb4:	f0 ea 00 18 	ld.d	r10,r8[24]
80002fb8:	fa eb 00 18 	st.d	sp[24],r10
80002fbc:	f0 ea 00 20 	ld.d	r10,r8[32]
80002fc0:	f8 c6 00 01 	sub	r6,r12,1
80002fc4:	fa eb 00 20 	st.d	sp[32],r10
80002fc8:	10 9c       	mov	r12,r8
80002fca:	f0 ea 00 28 	ld.d	r10,r8[40]
80002fce:	fa eb 00 28 	st.d	sp[40],r10
80002fd2:	70 c8       	ld.w	r8,r8[0x30]
80002fd4:	50 c8       	stdsp	sp[0x30],r8
80002fd6:	e0 68 29 e8 	mov	r8,10728
80002fda:	1a 97       	mov	r7,sp
80002fdc:	5c 56       	castu.b	r6
80002fde:	33 4a       	mov	r10,52
80002fe0:	ec 0a 02 45 	mul	r5,r6,r10
80002fe4:	10 05       	add	r5,r8
80002fe6:	0a 9b       	mov	r11,r5
80002fe8:	e0 a0 20 1e 	rcall	80007024 <memcpy>
80002fec:	0a 9c       	mov	r12,r5
80002fee:	33 4a       	mov	r10,52
80002ff0:	1a 9b       	mov	r11,sp
80002ff2:	e0 a0 20 19 	rcall	80007024 <memcpy>
80002ff6:	e0 68 27 5c 	mov	r8,10076
80002ffa:	f0 e4 00 00 	ld.d	r4,r8[0]
80002ffe:	10 9c       	mov	r12,r8
80003000:	fa e5 00 00 	st.d	sp[0],r4
80003004:	f0 e8 00 08 	ld.d	r8,r8[8]
80003008:	fa e9 00 08 	st.d	sp[8],r8
8000300c:	e0 68 29 cc 	mov	r8,10700
80003010:	31 0a       	mov	r10,16
80003012:	ec 05 15 04 	lsl	r5,r6,0x4
80003016:	10 05       	add	r5,r8
80003018:	0a 9b       	mov	r11,r5
8000301a:	e0 a0 20 05 	rcall	80007024 <memcpy>
8000301e:	31 0a       	mov	r10,16
80003020:	1a 9b       	mov	r11,sp
80003022:	0a 9c       	mov	r12,r5
80003024:	e0 a0 20 00 	rcall	80007024 <memcpy>
80003028:	30 4a       	mov	r10,4
8000302a:	e0 6b 29 e0 	mov	r11,10720
8000302e:	1a 9c       	mov	r12,sp
80003030:	e0 a0 1f fa 	rcall	80007024 <memcpy>
80003034:	e0 68 29 dc 	mov	r8,10716
80003038:	30 4a       	mov	r10,4
8000303a:	f0 06 00 26 	add	r6,r8,r6<<0x2
8000303e:	e0 6c 29 e0 	mov	r12,10720
80003042:	0c 9b       	mov	r11,r6
80003044:	e0 a0 1f f0 	rcall	80007024 <memcpy>
80003048:	1a 9b       	mov	r11,sp
8000304a:	0c 9c       	mov	r12,r6
8000304c:	30 4a       	mov	r10,4
8000304e:	e0 a0 1f eb 	rcall	80007024 <memcpy>
80003052:	2f 3d       	sub	sp,-52
80003054:	d8 22       	popm	r4-r7,pc
80003056:	d7 03       	nop

80003058 <fat_cache_flush>:
80003058:	d4 21       	pushm	r4-r7,lr
8000305a:	e0 65 2a 1c 	mov	r5,10780
8000305e:	30 18       	mov	r8,1
80003060:	eb 37 00 08 	ld.ub	r7,r5[8]
80003064:	f0 07 18 00 	cp.b	r7,r8
80003068:	c1 b1       	brne	8000309e <fat_cache_flush+0x46>
8000306a:	30 08       	mov	r8,0
8000306c:	0b 8c       	ld.ub	r12,r5[0x0]
8000306e:	eb 68 00 08 	st.b	r5[8],r8
80003072:	e0 a0 15 67 	rcall	80005b40 <mem_wr_protect>
80003076:	18 96       	mov	r6,r12
80003078:	c0 70       	breq	80003086 <fat_cache_flush+0x2e>
8000307a:	31 49       	mov	r9,20
8000307c:	e0 68 29 e4 	mov	r8,10724
80003080:	30 0c       	mov	r12,0
80003082:	b0 89       	st.b	r8[0x0],r9
80003084:	d8 22       	popm	r4-r7,pc
80003086:	0b 8c       	ld.ub	r12,r5[0x0]
80003088:	e0 6a 27 98 	mov	r10,10136
8000308c:	6a 1b       	ld.w	r11,r5[0x4]
8000308e:	e0 a0 15 6b 	rcall	80005b64 <ram_2_memory>
80003092:	c0 60       	breq	8000309e <fat_cache_flush+0x46>
80003094:	e0 68 29 e4 	mov	r8,10724
80003098:	0c 9c       	mov	r12,r6
8000309a:	b0 87       	st.b	r8[0x0],r7
8000309c:	d8 22       	popm	r4-r7,pc
8000309e:	da 2a       	popm	r4-r7,pc,r12=1

800030a0 <fat_cache_read_sector>:
800030a0:	d4 21       	pushm	r4-r7,lr
800030a2:	e0 68 2a 1c 	mov	r8,10780
800030a6:	e0 69 29 98 	mov	r9,10648
800030aa:	18 97       	mov	r7,r12
800030ac:	13 89       	ld.ub	r9,r9[0x0]
800030ae:	11 8a       	ld.ub	r10,r8[0x0]
800030b0:	f2 0a 18 00 	cp.b	r10,r9
800030b4:	c0 81       	brne	800030c4 <fat_cache_read_sector+0x24>
800030b6:	70 19       	ld.w	r9,r8[0x4]
800030b8:	e0 68 27 58 	mov	r8,10072
800030bc:	70 08       	ld.w	r8,r8[0x0]
800030be:	10 39       	cp.w	r9,r8
800030c0:	c0 21       	brne	800030c4 <fat_cache_read_sector+0x24>
800030c2:	da 2a       	popm	r4-r7,pc,r12=1
800030c4:	cc af       	rcall	80003058 <fat_cache_flush>
800030c6:	c2 50       	breq	80003110 <fat_cache_read_sector+0x70>
800030c8:	3f f9       	mov	r9,-1
800030ca:	e0 68 2a 1c 	mov	r8,10780
800030ce:	b0 89       	st.b	r8[0x0],r9
800030d0:	30 09       	mov	r9,0
800030d2:	f1 69 00 08 	st.b	r8[8],r9
800030d6:	3f f9       	mov	r9,-1
800030d8:	91 39       	st.w	r8[0xc],r9
800030da:	e0 69 27 58 	mov	r9,10072
800030de:	72 0b       	ld.w	r11,r9[0x0]
800030e0:	91 1b       	st.w	r8[0x4],r11
800030e2:	58 07       	cp.w	r7,0
800030e4:	c0 f0       	breq	80003102 <fat_cache_read_sector+0x62>
800030e6:	e0 68 29 98 	mov	r8,10648
800030ea:	e0 6a 27 98 	mov	r10,10136
800030ee:	11 8c       	ld.ub	r12,r8[0x0]
800030f0:	e0 a0 15 66 	rcall	80005bbc <memory_2_ram>
800030f4:	c0 70       	breq	80003102 <fat_cache_read_sector+0x62>
800030f6:	30 19       	mov	r9,1
800030f8:	e0 68 29 e4 	mov	r8,10724
800030fc:	30 0c       	mov	r12,0
800030fe:	b0 89       	st.b	r8[0x0],r9
80003100:	d8 22       	popm	r4-r7,pc
80003102:	e0 68 29 98 	mov	r8,10648
80003106:	30 1c       	mov	r12,1
80003108:	11 89       	ld.ub	r9,r8[0x0]
8000310a:	e0 68 2a 1c 	mov	r8,10780
8000310e:	b0 89       	st.b	r8[0x0],r9
80003110:	d8 22       	popm	r4-r7,pc
80003112:	d7 03       	nop

80003114 <fat_cluster_readnext>:
80003114:	d4 01       	pushm	lr
80003116:	e0 68 29 e0 	mov	r8,10720
8000311a:	30 39       	mov	r9,3
8000311c:	11 8a       	ld.ub	r10,r8[0x0]
8000311e:	e0 68 27 6c 	mov	r8,10092
80003122:	f2 0a 18 00 	cp.b	r10,r9
80003126:	c0 41       	brne	8000312e <fat_cluster_readnext+0x1a>
80003128:	90 09       	ld.sh	r9,r8[0x0]
8000312a:	2f c9       	sub	r9,-4
8000312c:	c0 38       	rjmp	80003132 <fat_cluster_readnext+0x1e>
8000312e:	90 09       	ld.sh	r9,r8[0x0]
80003130:	2f e9       	sub	r9,-2
80003132:	b0 09       	st.h	r8[0x0],r9
80003134:	e0 69 27 6c 	mov	r9,10092
80003138:	e0 68 02 00 	mov	r8,512
8000313c:	92 0a       	ld.sh	r10,r9[0x0]
8000313e:	f0 0a 19 00 	cp.h	r10,r8
80003142:	c0 b1       	brne	80003158 <fat_cluster_readnext+0x44>
80003144:	e0 68 27 58 	mov	r8,10072
80003148:	30 0a       	mov	r10,0
8000314a:	b2 0a       	st.h	r9[0x0],r10
8000314c:	70 09       	ld.w	r9,r8[0x0]
8000314e:	2f f9       	sub	r9,-1
80003150:	30 1c       	mov	r12,1
80003152:	91 09       	st.w	r8[0x0],r9
80003154:	ca 6f       	rcall	800030a0 <fat_cache_read_sector>
80003156:	c1 d0       	breq	80003190 <fat_cluster_readnext+0x7c>
80003158:	e0 69 27 6c 	mov	r9,10092
8000315c:	e0 6b 27 98 	mov	r11,10136
80003160:	92 8a       	ld.uh	r10,r9[0x0]
80003162:	f6 0a 00 09 	add	r9,r11,r10
80003166:	f6 0a 07 0a 	ld.ub	r10,r11[r10]
8000316a:	e0 68 2a 34 	mov	r8,10804
8000316e:	2f c8       	sub	r8,-4
80003170:	b0 ba       	st.b	r8[0x3],r10
80003172:	13 9a       	ld.ub	r10,r9[0x1]
80003174:	b0 aa       	st.b	r8[0x2],r10
80003176:	e0 6a 29 e0 	mov	r10,10720
8000317a:	15 8b       	ld.ub	r11,r10[0x0]
8000317c:	30 3a       	mov	r10,3
8000317e:	f4 0b 18 00 	cp.b	r11,r10
80003182:	c0 20       	breq	80003186 <fat_cluster_readnext+0x72>
80003184:	da 0a       	popm	pc,r12=1
80003186:	13 ba       	ld.ub	r10,r9[0x3]
80003188:	30 1c       	mov	r12,1
8000318a:	b0 8a       	st.b	r8[0x0],r10
8000318c:	13 a9       	ld.ub	r9,r9[0x2]
8000318e:	b0 99       	st.b	r8[0x1],r9
80003190:	d8 02       	popm	pc
80003192:	d7 03       	nop

80003194 <fat_cluster_val>:
80003194:	d4 31       	pushm	r0-r7,lr
80003196:	e0 68 29 e0 	mov	r8,10720
8000319a:	18 97       	mov	r7,r12
8000319c:	11 88       	ld.ub	r8,r8[0x0]
8000319e:	30 39       	mov	r9,3
800031a0:	f2 08 18 00 	cp.b	r8,r9
800031a4:	c0 d1       	brne	800031be <fat_cluster_val+0x2a>
800031a6:	e0 68 2a 34 	mov	r8,10804
800031aa:	e0 69 27 6c 	mov	r9,10092
800031ae:	11 ba       	ld.ub	r10,r8[0x3]
800031b0:	70 08       	ld.w	r8,r8[0x0]
800031b2:	f5 da c0 07 	bfextu	r10,r10,0x0,0x7
800031b6:	a7 98       	lsr	r8,0x7
800031b8:	a3 6a       	lsl	r10,0x2
800031ba:	b2 0a       	st.h	r9[0x0],r10
800031bc:	c2 48       	rjmp	80003204 <fat_cluster_val+0x70>
800031be:	30 29       	mov	r9,2
800031c0:	f2 08 18 00 	cp.b	r8,r9
800031c4:	c0 a1       	brne	800031d8 <fat_cluster_val+0x44>
800031c6:	e0 68 2a 34 	mov	r8,10804
800031ca:	e0 69 27 6c 	mov	r9,10092
800031ce:	11 ba       	ld.ub	r10,r8[0x3]
800031d0:	a1 7a       	lsl	r10,0x1
800031d2:	b2 0a       	st.h	r9[0x0],r10
800031d4:	11 a8       	ld.ub	r8,r8[0x2]
800031d6:	c1 78       	rjmp	80003204 <fat_cluster_val+0x70>
800031d8:	30 19       	mov	r9,1
800031da:	f2 08 18 00 	cp.b	r8,r9
800031de:	c0 30       	breq	800031e4 <fat_cluster_val+0x50>
800031e0:	30 08       	mov	r8,0
800031e2:	c1 18       	rjmp	80003204 <fat_cluster_val+0x70>
800031e4:	e0 69 27 6c 	mov	r9,10092
800031e8:	e0 68 2a 34 	mov	r8,10804
800031ec:	70 08       	ld.w	r8,r8[0x0]
800031ee:	f5 d8 c0 2f 	bfextu	r10,r8,0x1,0xf
800031f2:	f4 08 00 08 	add	r8,r10,r8
800031f6:	b2 08       	st.h	r9[0x0],r8
800031f8:	f1 d8 c1 08 	bfextu	r8,r8,0x8,0x8
800031fc:	f5 d8 c0 01 	bfextu	r10,r8,0x0,0x1
80003200:	a1 98       	lsr	r8,0x1
80003202:	b2 8a       	st.b	r9[0x0],r10
80003204:	e0 69 29 98 	mov	r9,10648
80003208:	72 49       	ld.w	r9,r9[0x10]
8000320a:	12 08       	add	r8,r9
8000320c:	e0 66 27 58 	mov	r6,10072
80003210:	30 1c       	mov	r12,1
80003212:	8d 08       	st.w	r6[0x0],r8
80003214:	c4 6f       	rcall	800030a0 <fat_cache_read_sector>
80003216:	c5 80       	breq	800032c6 <fat_cluster_val+0x132>
80003218:	e0 68 27 6c 	mov	r8,10092
8000321c:	e0 6a 29 e0 	mov	r10,10720
80003220:	90 09       	ld.sh	r9,r8[0x0]
80003222:	e0 65 27 98 	mov	r5,10136
80003226:	f1 d9 c0 10 	bfextu	r8,r9,0x0,0x10
8000322a:	0a 08       	add	r8,r5
8000322c:	15 8b       	ld.ub	r11,r10[0x0]
8000322e:	11 b4       	ld.ub	r4,r8[0x3]
80003230:	11 82       	ld.ub	r2,r8[0x0]
80003232:	11 9a       	ld.ub	r10,r8[0x1]
80003234:	11 a3       	ld.ub	r3,r8[0x2]
80003236:	30 18       	mov	r8,1
80003238:	f0 0b 18 00 	cp.b	r11,r8
8000323c:	c0 d1       	brne	80003256 <fat_cluster_val+0xc2>
8000323e:	e0 68 01 ff 	mov	r8,511
80003242:	f0 09 19 00 	cp.h	r9,r8
80003246:	c0 81       	brne	80003256 <fat_cluster_val+0xc2>
80003248:	6c 08       	ld.w	r8,r6[0x0]
8000324a:	2f f8       	sub	r8,-1
8000324c:	30 1c       	mov	r12,1
8000324e:	8d 08       	st.w	r6[0x0],r8
80003250:	c2 8f       	rcall	800030a0 <fat_cache_read_sector>
80003252:	c3 a0       	breq	800032c6 <fat_cluster_val+0x132>
80003254:	0b 8a       	ld.ub	r10,r5[0x0]
80003256:	58 07       	cp.w	r7,0
80003258:	c3 11       	brne	800032ba <fat_cluster_val+0x126>
8000325a:	e0 69 2a 34 	mov	r9,10804
8000325e:	f2 cb ff f9 	sub	r11,r9,-7
80003262:	b6 82       	st.b	r11[0x0],r2
80003264:	f2 c8 ff fa 	sub	r8,r9,-6
80003268:	b0 8a       	st.b	r8[0x0],r10
8000326a:	e0 6a 29 e0 	mov	r10,10720
8000326e:	30 36       	mov	r6,3
80003270:	15 8c       	ld.ub	r12,r10[0x0]
80003272:	f2 ca ff fc 	sub	r10,r9,-4
80003276:	ec 0c 18 00 	cp.b	r12,r6
8000327a:	c0 61       	brne	80003286 <fat_cluster_val+0xf2>
8000327c:	e9 d4 c0 04 	bfextu	r4,r4,0x0,0x4
80003280:	b4 93       	st.b	r10[0x1],r3
80003282:	b4 84       	st.b	r10[0x0],r4
80003284:	c1 a8       	rjmp	800032b8 <fat_cluster_val+0x124>
80003286:	b4 87       	st.b	r10[0x0],r7
80003288:	b4 97       	st.b	r10[0x1],r7
8000328a:	0e 9e       	mov	lr,r7
8000328c:	30 1a       	mov	r10,1
8000328e:	f4 0c 18 00 	cp.b	r12,r10
80003292:	c1 31       	brne	800032b8 <fat_cluster_val+0x124>
80003294:	13 ba       	ld.ub	r10,r9[0x3]
80003296:	11 89       	ld.ub	r9,r8[0x0]
80003298:	f5 da c0 01 	bfextu	r10,r10,0x0,0x1
8000329c:	c0 b0       	breq	800032b2 <fat_cluster_val+0x11e>
8000329e:	f2 0a 16 04 	lsr	r10,r9,0x4
800032a2:	b0 8a       	st.b	r8[0x0],r10
800032a4:	a5 69       	lsl	r9,0x4
800032a6:	17 88       	ld.ub	r8,r11[0x0]
800032a8:	a5 88       	lsr	r8,0x4
800032aa:	f0 09 00 09 	add	r9,r8,r9
800032ae:	b6 89       	st.b	r11[0x0],r9
800032b0:	c0 48       	rjmp	800032b8 <fat_cluster_val+0x124>
800032b2:	f3 d9 c0 04 	bfextu	r9,r9,0x0,0x4
800032b6:	b0 89       	st.b	r8[0x0],r9
800032b8:	da 3a       	popm	r0-r7,pc,r12=1
800032ba:	32 29       	mov	r9,34
800032bc:	e0 68 29 e4 	mov	r8,10724
800032c0:	30 0c       	mov	r12,0
800032c2:	b0 89       	st.b	r8[0x0],r9
800032c4:	d8 32       	popm	r0-r7,pc
800032c6:	d8 3a       	popm	r0-r7,pc,r12=0

800032c8 <fat_cluster_list>:
800032c8:	d4 31       	pushm	r0-r7,lr
800032ca:	20 2d       	sub	sp,8
800032cc:	30 89       	mov	r9,8
800032ce:	e0 68 29 e4 	mov	r8,10724
800032d2:	b0 89       	st.b	r8[0x0],r9
800032d4:	30 36       	mov	r6,3
800032d6:	e0 69 29 e0 	mov	r9,10720
800032da:	ec 0c 18 00 	cp.b	r12,r6
800032de:	5f 05       	sreq	r5
800032e0:	13 82       	ld.ub	r2,r9[0x0]
800032e2:	18 97       	mov	r7,r12
800032e4:	ec 02 18 00 	cp.b	r2,r6
800032e8:	5f 03       	sreq	r3
800032ea:	eb e3 00 0a 	and	r10,r5,r3
800032ee:	e0 81 00 f4 	brne	800034d6 <fat_cluster_list+0x20e>
800032f2:	e0 69 2a 3c 	mov	r9,10812
800032f6:	72 04       	ld.w	r4,r9[0x0]
800032f8:	58 04       	cp.w	r4,0
800032fa:	c2 71       	brne	80003348 <fat_cluster_list+0x80>
800032fc:	58 05       	cp.w	r5,0
800032fe:	e0 81 00 ec 	brne	800034d6 <fat_cluster_list+0x20e>
80003302:	20 12       	sub	r2,1
80003304:	30 1a       	mov	r10,1
80003306:	f4 02 18 00 	cp.b	r2,r10
8000330a:	e0 8b 00 16 	brhi	80003336 <fat_cluster_list+0x6e>
8000330e:	e0 6b 29 98 	mov	r11,10648
80003312:	72 1a       	ld.w	r10,r9[0x4]
80003314:	f7 1c 00 1a 	ld.uh	r12,r11[26]
80003318:	18 3a       	cp.w	r10,r12
8000331a:	c0 a2       	brcc	8000332e <fat_cluster_list+0x66>
8000331c:	14 1c       	sub	r12,r10
8000331e:	f7 18 00 18 	ld.uh	r8,r11[24]
80003322:	93 1c       	st.w	r9[0x4],r12
80003324:	76 4b       	ld.w	r11,r11[0x10]
80003326:	16 0a       	add	r10,r11
80003328:	10 0a       	add	r10,r8
8000332a:	93 0a       	st.w	r9[0x0],r10
8000332c:	cc 88       	rjmp	800034bc <fat_cluster_list+0x1f4>
8000332e:	31 a9       	mov	r9,26
80003330:	0a 9c       	mov	r12,r5
80003332:	b0 89       	st.b	r8[0x0],r9
80003334:	cd 28       	rjmp	800034d8 <fat_cluster_list+0x210>
80003336:	58 03       	cp.w	r3,0
80003338:	c0 e0       	breq	80003354 <fat_cluster_list+0x8c>
8000333a:	e0 68 29 98 	mov	r8,10648
8000333e:	70 69       	ld.w	r9,r8[0x18]
80003340:	e0 68 2a 34 	mov	r8,10804
80003344:	91 09       	st.w	r8[0x0],r9
80003346:	c0 78       	rjmp	80003354 <fat_cluster_list+0x8c>
80003348:	e0 68 2a 34 	mov	r8,10804
8000334c:	91 04       	st.w	r8[0x0],r4
8000334e:	ec 0c 18 00 	cp.b	r12,r6
80003352:	c0 60       	breq	8000335e <fat_cluster_list+0x96>
80003354:	16 9c       	mov	r12,r11
80003356:	fe b0 fb 6d 	rcall	80002a30 <fat_cache_clusterlist_update_read>
8000335a:	c1 20       	breq	8000337e <fat_cluster_list+0xb6>
8000335c:	cb 08       	rjmp	800034bc <fat_cluster_list+0x1f4>
8000335e:	e0 68 27 70 	mov	r8,10096
80003362:	3f f9       	mov	r9,-1
80003364:	f1 6a 00 14 	st.b	r8[20],r10
80003368:	f1 69 00 15 	st.b	r8[21],r9
8000336c:	b0 a9       	st.b	r8[0x2],r9
8000336e:	b0 99       	st.b	r8[0x1],r9
80003370:	f1 69 00 16 	st.b	r8[22],r9
80003374:	e0 69 29 e6 	mov	r9,10726
80003378:	b2 8a       	st.b	r9[0x0],r10
8000337a:	30 19       	mov	r9,1
8000337c:	b0 89       	st.b	r8[0x0],r9
8000337e:	e0 62 2a 3c 	mov	r2,10812
80003382:	3f f8       	mov	r8,-1
80003384:	a4 88       	st.b	r2[0x0],r8
80003386:	e0 66 2a 34 	mov	r6,10804
8000338a:	e4 c8 ff f9 	sub	r8,r2,-7
8000338e:	04 95       	mov	r5,r2
80003390:	e0 64 29 98 	mov	r4,10648
80003394:	30 21       	mov	r1,2
80003396:	50 18       	stdsp	sp[0x4],r8
80003398:	30 13       	mov	r3,1
8000339a:	e0 68 2a 3c 	mov	r8,10812
8000339e:	6a 1a       	ld.w	r10,r5[0x4]
800033a0:	09 99       	ld.ub	r9,r4[0x1]
800033a2:	12 3a       	cp.w	r10,r9
800033a4:	c3 d2       	brcc	8000341e <fat_cluster_list+0x156>
800033a6:	68 5c       	ld.w	r12,r4[0x14]
800033a8:	6c 00       	ld.w	r0,r6[0x0]
800033aa:	68 4b       	ld.w	r11,r4[0x10]
800033ac:	f4 0b 00 0b 	add	r11,r10,r11
800033b0:	18 0b       	add	r11,r12
800033b2:	e0 cc 00 02 	sub	r12,r0,2
800033b6:	f8 09 03 4b 	mac	r11,r12,r9
800033ba:	8b 0b       	st.w	r5[0x0],r11
800033bc:	e2 07 18 00 	cp.b	r7,r1
800033c0:	c0 a1       	brne	800033d4 <fat_cluster_list+0x10c>
800033c2:	14 19       	sub	r9,r10
800033c4:	50 08       	stdsp	sp[0x0],r8
800033c6:	91 19       	st.w	r8[0x4],r9
800033c8:	fe b0 fa ec 	rcall	800029a0 <fat_cache_clusterlist_update_finish>
800033cc:	30 1c       	mov	r12,1
800033ce:	40 08       	lddsp	r8,sp[0x0]
800033d0:	91 1c       	st.w	r8[0x4],r12
800033d2:	c8 38       	rjmp	800034d8 <fat_cluster_list+0x210>
800033d4:	40 1a       	lddsp	r10,sp[0x4]
800033d6:	15 88       	ld.ub	r8,r10[0x0]
800033d8:	10 19       	sub	r9,r8
800033da:	8b 19       	st.w	r5[0x4],r9
800033dc:	e6 07 18 00 	cp.b	r7,r3
800033e0:	c1 f1       	brne	8000341e <fat_cluster_list+0x156>
800033e2:	e0 6b 29 e0 	mov	r11,10720
800033e6:	17 88       	ld.ub	r8,r11[0x0]
800033e8:	e6 08 18 00 	cp.b	r8,r3
800033ec:	c1 90       	breq	8000341e <fat_cluster_list+0x156>
800033ee:	30 0c       	mov	r12,0
800033f0:	cd 2e       	rcall	80003194 <fat_cluster_val>
800033f2:	58 0c       	cp.w	r12,0
800033f4:	c7 10       	breq	800034d6 <fat_cluster_list+0x20e>
800033f6:	6c 08       	ld.w	r8,r6[0x0]
800033f8:	f0 c9 ff ff 	sub	r9,r8,-1
800033fc:	8d 09       	st.w	r6[0x0],r9
800033fe:	6c 1a       	ld.w	r10,r6[0x4]
80003400:	14 39       	cp.w	r9,r10
80003402:	c0 c0       	breq	8000341a <fat_cluster_list+0x152>
80003404:	f0 00 01 00 	sub	r0,r8,r0
80003408:	e0 6a 2a 34 	mov	r10,10804
8000340c:	09 99       	ld.ub	r9,r4[0x1]
8000340e:	95 08       	st.w	r10[0x0],r8
80003410:	b3 30       	mul	r0,r9
80003412:	6a 18       	ld.w	r8,r5[0x4]
80003414:	10 00       	add	r0,r8
80003416:	8b 10       	st.w	r5[0x4],r0
80003418:	c0 38       	rjmp	8000341e <fat_cluster_list+0x156>
8000341a:	c7 de       	rcall	80003114 <fat_cluster_readnext>
8000341c:	ce bb       	rjmp	800033f2 <fat_cluster_list+0x12a>
8000341e:	30 0c       	mov	r12,0
80003420:	cb ae       	rcall	80003194 <fat_cluster_val>
80003422:	c5 a0       	breq	800034d6 <fat_cluster_list+0x20e>
80003424:	fe b0 fa 7e 	rcall	80002920 <fat_checkcluster>
80003428:	e6 0c 18 00 	cp.b	r12,r3
8000342c:	c5 50       	breq	800034d6 <fat_cluster_list+0x20e>
8000342e:	05 89       	ld.ub	r9,r2[0x0]
80003430:	3f f8       	mov	r8,-1
80003432:	f0 09 18 00 	cp.b	r9,r8
80003436:	c3 91       	brne	800034a8 <fat_cluster_list+0x1e0>
80003438:	e0 68 2a 3c 	mov	r8,10812
8000343c:	e0 69 29 98 	mov	r9,10648
80003440:	e2 0c 18 00 	cp.b	r12,r1
80003444:	c2 d1       	brne	8000349e <fat_cluster_list+0x1d6>
80003446:	72 4c       	ld.w	r12,r9[0x10]
80003448:	70 16       	ld.w	r6,r8[0x4]
8000344a:	13 9a       	ld.ub	r10,r9[0x1]
8000344c:	91 1a       	st.w	r8[0x4],r10
8000344e:	72 59       	ld.w	r9,r9[0x14]
80003450:	e0 6b 29 e6 	mov	r11,10726
80003454:	18 09       	add	r9,r12
80003456:	17 8b       	ld.ub	r11,r11[0x0]
80003458:	e0 65 27 70 	mov	r5,10096
8000345c:	f6 0b 00 2b 	add	r11,r11,r11<<0x2
80003460:	ea 0b 00 2b 	add	r11,r5,r11<<0x2
80003464:	76 2c       	ld.w	r12,r11[0x8]
80003466:	0c 1c       	sub	r12,r6
80003468:	97 2c       	st.w	r11[0x8],r12
8000346a:	e0 6b 2a 34 	mov	r11,10804
8000346e:	76 0b       	ld.w	r11,r11[0x0]
80003470:	20 2b       	sub	r11,2
80003472:	b7 3a       	mul	r10,r11
80003474:	f2 0a 00 0a 	add	r10,r9,r10
80003478:	91 0a       	st.w	r8[0x0],r10
8000347a:	30 38       	mov	r8,3
8000347c:	f0 07 18 00 	cp.b	r7,r8
80003480:	c0 30       	breq	80003486 <fat_cluster_list+0x1be>
80003482:	fe b0 fa 8f 	rcall	800029a0 <fat_cache_clusterlist_update_finish>
80003486:	e0 68 2a 3c 	mov	r8,10812
8000348a:	e0 69 2a 34 	mov	r9,10804
8000348e:	72 09       	ld.w	r9,r9[0x0]
80003490:	91 16       	st.w	r8[0x4],r6
80003492:	91 09       	st.w	r8[0x0],r9
80003494:	31 a9       	mov	r9,26
80003496:	e0 68 29 e4 	mov	r8,10724
8000349a:	b0 89       	st.b	r8[0x0],r9
8000349c:	c1 d8       	rjmp	800034d6 <fat_cluster_list+0x20e>
8000349e:	6a 19       	ld.w	r9,r5[0x4]
800034a0:	09 98       	ld.ub	r8,r4[0x1]
800034a2:	10 19       	sub	r9,r8
800034a4:	8b 19       	st.w	r5[0x4],r9
800034a6:	c1 58       	rjmp	800034d0 <fat_cluster_list+0x208>
800034a8:	e6 07 18 00 	cp.b	r7,r3
800034ac:	c0 a1       	brne	800034c0 <fat_cluster_list+0x1f8>
800034ae:	6c 09       	ld.w	r9,r6[0x0]
800034b0:	6c 18       	ld.w	r8,r6[0x4]
800034b2:	2f f9       	sub	r9,-1
800034b4:	10 39       	cp.w	r9,r8
800034b6:	c0 50       	breq	800034c0 <fat_cluster_list+0x1f8>
800034b8:	fe b0 fa 74 	rcall	800029a0 <fat_cache_clusterlist_update_finish>
800034bc:	30 1c       	mov	r12,1
800034be:	c0 d8       	rjmp	800034d8 <fat_cluster_list+0x210>
800034c0:	e2 0c 18 00 	cp.b	r12,r1
800034c4:	cf a0       	breq	800034b8 <fat_cluster_list+0x1f0>
800034c6:	6a 18       	ld.w	r8,r5[0x4]
800034c8:	09 99       	ld.ub	r9,r4[0x1]
800034ca:	f2 08 00 08 	add	r8,r9,r8
800034ce:	8b 18       	st.w	r5[0x4],r8
800034d0:	6c 18       	ld.w	r8,r6[0x4]
800034d2:	8d 08       	st.w	r6[0x0],r8
800034d4:	c6 3b       	rjmp	8000339a <fat_cluster_list+0xd2>
800034d6:	30 0c       	mov	r12,0
800034d8:	2f ed       	sub	sp,-8
800034da:	d8 32       	popm	r0-r7,pc

800034dc <fat_read_dir>:
800034dc:	d4 21       	pushm	r4-r7,lr
800034de:	e0 68 29 e0 	mov	r8,10720
800034e2:	e0 69 29 98 	mov	r9,10648
800034e6:	90 97       	ld.uh	r7,r8[0x2]
800034e8:	13 8a       	ld.ub	r10,r9[0x0]
800034ea:	e0 68 2a 1c 	mov	r8,10780
800034ee:	a5 87       	lsr	r7,0x4
800034f0:	11 8b       	ld.ub	r11,r8[0x0]
800034f2:	f4 0b 18 00 	cp.b	r11,r10
800034f6:	c0 81       	brne	80003506 <fat_read_dir+0x2a>
800034f8:	72 89       	ld.w	r9,r9[0x20]
800034fa:	70 3a       	ld.w	r10,r8[0xc]
800034fc:	12 3a       	cp.w	r10,r9
800034fe:	c0 41       	brne	80003506 <fat_read_dir+0x2a>
80003500:	70 48       	ld.w	r8,r8[0x10]
80003502:	0e 38       	cp.w	r8,r7
80003504:	c1 90       	breq	80003536 <fat_read_dir+0x5a>
80003506:	e0 65 29 98 	mov	r5,10648
8000350a:	6a 88       	ld.w	r8,r5[0x20]
8000350c:	e0 66 2a 3c 	mov	r6,10812
80003510:	30 0b       	mov	r11,0
80003512:	8d 17       	st.w	r6[0x4],r7
80003514:	8d 08       	st.w	r6[0x0],r8
80003516:	30 2c       	mov	r12,2
80003518:	cd 8e       	rcall	800032c8 <fat_cluster_list>
8000351a:	c0 f0       	breq	80003538 <fat_read_dir+0x5c>
8000351c:	6c 09       	ld.w	r9,r6[0x0]
8000351e:	e0 68 27 58 	mov	r8,10072
80003522:	30 1c       	mov	r12,1
80003524:	91 09       	st.w	r8[0x0],r9
80003526:	fe b0 fd bd 	rcall	800030a0 <fat_cache_read_sector>
8000352a:	c0 70       	breq	80003538 <fat_read_dir+0x5c>
8000352c:	e0 68 2a 1c 	mov	r8,10780
80003530:	6a 89       	ld.w	r9,r5[0x20]
80003532:	91 47       	st.w	r8[0x10],r7
80003534:	91 39       	st.w	r8[0xc],r9
80003536:	da 2a       	popm	r4-r7,pc,r12=1
80003538:	d8 2a       	popm	r4-r7,pc,r12=0
8000353a:	d7 03       	nop

8000353c <fat_read_file>:
8000353c:	d4 21       	pushm	r4-r7,lr
8000353e:	e0 68 27 5c 	mov	r8,10076
80003542:	18 97       	mov	r7,r12
80003544:	70 39       	ld.w	r9,r8[0xc]
80003546:	30 2a       	mov	r10,2
80003548:	f2 06 16 09 	lsr	r6,r9,0x9
8000354c:	f4 0c 18 00 	cp.b	r12,r10
80003550:	c1 21       	brne	80003574 <fat_read_file+0x38>
80003552:	e0 69 2a 1c 	mov	r9,10780
80003556:	e0 6a 29 98 	mov	r10,10648
8000355a:	13 8b       	ld.ub	r11,r9[0x0]
8000355c:	15 8a       	ld.ub	r10,r10[0x0]
8000355e:	f4 0b 18 00 	cp.b	r11,r10
80003562:	c1 41       	brne	8000358a <fat_read_file+0x4e>
80003564:	70 18       	ld.w	r8,r8[0x4]
80003566:	72 3a       	ld.w	r10,r9[0xc]
80003568:	10 3a       	cp.w	r10,r8
8000356a:	c1 01       	brne	8000358a <fat_read_file+0x4e>
8000356c:	72 48       	ld.w	r8,r9[0x10]
8000356e:	0c 38       	cp.w	r8,r6
80003570:	c0 d1       	brne	8000358a <fat_read_file+0x4e>
80003572:	c3 a8       	rjmp	800035e6 <fat_read_file+0xaa>
80003574:	30 3a       	mov	r10,3
80003576:	f4 0c 18 00 	cp.b	r12,r10
8000357a:	c0 81       	brne	8000358a <fat_read_file+0x4e>
8000357c:	70 18       	ld.w	r8,r8[0x4]
8000357e:	58 08       	cp.w	r8,0
80003580:	c3 30       	breq	800035e6 <fat_read_file+0xaa>
80003582:	f3 d9 c0 09 	bfextu	r9,r9,0x0,0x9
80003586:	c0 20       	breq	8000358a <fat_read_file+0x4e>
80003588:	2f f6       	sub	r6,-1
8000358a:	e0 65 2a 3c 	mov	r5,10812
8000358e:	e0 64 27 5c 	mov	r4,10076
80003592:	8b 16       	st.w	r5[0x4],r6
80003594:	68 18       	ld.w	r8,r4[0x4]
80003596:	8b 08       	st.w	r5[0x0],r8
80003598:	30 28       	mov	r8,2
8000359a:	f0 07 18 00 	cp.b	r7,r8
8000359e:	c0 60       	breq	800035aa <fat_read_file+0x6e>
800035a0:	30 1b       	mov	r11,1
800035a2:	0e 9c       	mov	r12,r7
800035a4:	c9 2e       	rcall	800032c8 <fat_cluster_list>
800035a6:	c1 40       	breq	800035ce <fat_read_file+0x92>
800035a8:	c1 f8       	rjmp	800035e6 <fat_read_file+0xaa>
800035aa:	30 1b       	mov	r11,1
800035ac:	16 9c       	mov	r12,r11
800035ae:	c8 de       	rcall	800032c8 <fat_cluster_list>
800035b0:	c1 c0       	breq	800035e8 <fat_read_file+0xac>
800035b2:	6a 09       	ld.w	r9,r5[0x0]
800035b4:	e0 68 27 58 	mov	r8,10072
800035b8:	30 1c       	mov	r12,1
800035ba:	91 09       	st.w	r8[0x0],r9
800035bc:	fe b0 fd 72 	rcall	800030a0 <fat_cache_read_sector>
800035c0:	c1 40       	breq	800035e8 <fat_read_file+0xac>
800035c2:	e0 68 2a 1c 	mov	r8,10780
800035c6:	68 19       	ld.w	r9,r4[0x4]
800035c8:	91 46       	st.w	r8[0x10],r6
800035ca:	91 39       	st.w	r8[0xc],r9
800035cc:	c0 d8       	rjmp	800035e6 <fat_read_file+0xaa>
800035ce:	30 38       	mov	r8,3
800035d0:	f0 07 18 00 	cp.b	r7,r8
800035d4:	c0 a1       	brne	800035e8 <fat_read_file+0xac>
800035d6:	e0 68 29 e4 	mov	r8,10724
800035da:	11 89       	ld.ub	r9,r8[0x0]
800035dc:	31 a8       	mov	r8,26
800035de:	f0 09 18 00 	cp.b	r9,r8
800035e2:	5f 0c       	sreq	r12
800035e4:	d8 22       	popm	r4-r7,pc
800035e6:	da 2a       	popm	r4-r7,pc,r12=1
800035e8:	d8 2a       	popm	r4-r7,pc,r12=0
800035ea:	d7 03       	nop

800035ec <fat_check_device>:
800035ec:	d4 31       	pushm	r0-r7,lr
800035ee:	e0 68 27 6e 	mov	r8,10094
800035f2:	11 89       	ld.ub	r9,r8[0x0]
800035f4:	30 08       	mov	r8,0
800035f6:	f0 09 18 00 	cp.b	r9,r8
800035fa:	c5 21       	brne	8000369e <fat_check_device+0xb2>
800035fc:	e0 63 29 98 	mov	r3,10648
80003600:	3f f6       	mov	r6,-1
80003602:	07 88       	ld.ub	r8,r3[0x0]
80003604:	ec 08 18 00 	cp.b	r8,r6
80003608:	c0 61       	brne	80003614 <fat_check_device+0x28>
8000360a:	30 19       	mov	r9,1
8000360c:	e0 68 29 e4 	mov	r8,10724
80003610:	b0 89       	st.b	r8[0x0],r9
80003612:	c4 58       	rjmp	8000369c <fat_check_device+0xb0>
80003614:	30 04       	mov	r4,0
80003616:	e0 60 29 e0 	mov	r0,10720
8000361a:	08 97       	mov	r7,r4
8000361c:	e0 61 27 5c 	mov	r1,10076
80003620:	e0 62 29 e8 	mov	r2,10728
80003624:	e0 65 2a 1c 	mov	r5,10780
80003628:	07 8c       	ld.ub	r12,r3[0x0]
8000362a:	e0 a0 12 73 	rcall	80005b10 <mem_test_unit_ready>
8000362e:	e0 68 27 70 	mov	r8,10096
80003632:	30 1a       	mov	r10,1
80003634:	e0 69 29 e4 	mov	r9,10724
80003638:	58 0c       	cp.w	r12,0
8000363a:	c3 20       	breq	8000369e <fat_check_device+0xb2>
8000363c:	a0 87       	st.b	r0[0x0],r7
8000363e:	a2 87       	st.b	r1[0x0],r7
80003640:	07 8b       	ld.ub	r11,r3[0x0]
80003642:	05 8e       	ld.ub	lr,r2[0x0]
80003644:	f6 0e 18 00 	cp.b	lr,r11
80003648:	c0 71       	brne	80003656 <fat_check_device+0x6a>
8000364a:	e0 6e 29 dc 	mov	lr,10716
8000364e:	bc 87       	st.b	lr[0x0],r7
80003650:	e0 6e 29 cc 	mov	lr,10700
80003654:	bc 87       	st.b	lr[0x0],r7
80003656:	0b 8e       	ld.ub	lr,r5[0x0]
80003658:	f6 0e 18 00 	cp.b	lr,r11
8000365c:	c0 61       	brne	80003668 <fat_check_device+0x7c>
8000365e:	3f fb       	mov	r11,-1
80003660:	aa 86       	st.b	r5[0x0],r6
80003662:	eb 67 00 08 	st.b	r5[8],r7
80003666:	8b 3b       	st.w	r5[0xc],r11
80003668:	e0 6b 29 e6 	mov	r11,10726
8000366c:	b6 87       	st.b	r11[0x0],r7
8000366e:	f1 66 00 15 	st.b	r8[21],r6
80003672:	b2 8a       	st.b	r9[0x0],r10
80003674:	b0 8a       	st.b	r8[0x0],r10
80003676:	b0 a6       	st.b	r8[0x2],r6
80003678:	b0 96       	st.b	r8[0x1],r6
8000367a:	f1 67 00 14 	st.b	r8[20],r7
8000367e:	f1 66 00 16 	st.b	r8[22],r6
80003682:	58 3c       	cp.w	r12,3
80003684:	c0 81       	brne	80003694 <fat_check_device+0xa8>
80003686:	2f f4       	sub	r4,-1
80003688:	36 48       	mov	r8,100
8000368a:	5c 54       	castu.b	r4
8000368c:	f0 04 18 00 	cp.b	r4,r8
80003690:	cc c1       	brne	80003628 <fat_check_device+0x3c>
80003692:	c0 78       	rjmp	800036a0 <fat_check_device+0xb4>
80003694:	58 2c       	cp.w	r12,2
80003696:	c0 51       	brne	800036a0 <fat_check_device+0xb4>
80003698:	31 88       	mov	r8,24
8000369a:	b2 88       	st.b	r9[0x0],r8
8000369c:	d8 3a       	popm	r0-r7,pc,r12=0
8000369e:	da 3a       	popm	r0-r7,pc,r12=1
800036a0:	d8 3a       	popm	r0-r7,pc,r12=0
800036a2:	d7 03       	nop

800036a4 <fat_check_noopen>:
800036a4:	d4 01       	pushm	lr
800036a6:	ca 3f       	rcall	800035ec <fat_check_device>
800036a8:	c1 40       	breq	800036d0 <fat_check_noopen+0x2c>
800036aa:	e0 68 29 e0 	mov	r8,10720
800036ae:	11 89       	ld.ub	r9,r8[0x0]
800036b0:	30 08       	mov	r8,0
800036b2:	f0 09 18 00 	cp.b	r9,r8
800036b6:	c0 d0       	breq	800036d0 <fat_check_noopen+0x2c>
800036b8:	e0 69 27 5c 	mov	r9,10076
800036bc:	13 89       	ld.ub	r9,r9[0x0]
800036be:	f0 09 18 00 	cp.b	r9,r8
800036c2:	c0 70       	breq	800036d0 <fat_check_noopen+0x2c>
800036c4:	30 59       	mov	r9,5
800036c6:	e0 68 29 e4 	mov	r8,10724
800036ca:	30 0c       	mov	r12,0
800036cc:	b0 89       	st.b	r8[0x0],r9
800036ce:	d8 02       	popm	pc
800036d0:	da 0a       	popm	pc,r12=1
800036d2:	d7 03       	nop

800036d4 <fat_check_mount>:
800036d4:	d4 01       	pushm	lr
800036d6:	c8 bf       	rcall	800035ec <fat_check_device>
800036d8:	c1 00       	breq	800036f8 <fat_check_mount+0x24>
800036da:	e0 68 29 e0 	mov	r8,10720
800036de:	11 89       	ld.ub	r9,r8[0x0]
800036e0:	30 08       	mov	r8,0
800036e2:	f0 09 18 00 	cp.b	r9,r8
800036e6:	c0 81       	brne	800036f6 <fat_check_mount+0x22>
800036e8:	c5 2c       	rcall	8000378c <fat_mount>
800036ea:	c0 61       	brne	800036f6 <fat_check_mount+0x22>
800036ec:	30 e9       	mov	r9,14
800036ee:	e0 68 29 e4 	mov	r8,10724
800036f2:	b0 89       	st.b	r8[0x0],r9
800036f4:	d8 02       	popm	pc
800036f6:	30 1c       	mov	r12,1
800036f8:	d8 02       	popm	pc
800036fa:	d7 03       	nop

800036fc <fat_check_mount_select>:
800036fc:	d4 01       	pushm	lr
800036fe:	ce bf       	rcall	800036d4 <fat_check_mount>
80003700:	c0 e0       	breq	8000371c <fat_check_mount_select+0x20>
80003702:	e0 68 29 e0 	mov	r8,10720
80003706:	90 19       	ld.sh	r9,r8[0x2]
80003708:	3f f8       	mov	r8,-1
8000370a:	f0 09 19 00 	cp.h	r9,r8
8000370e:	c0 20       	breq	80003712 <fat_check_mount_select+0x16>
80003710:	da 0a       	popm	pc,r12=1
80003712:	30 f9       	mov	r9,15
80003714:	e0 68 29 e4 	mov	r8,10724
80003718:	30 0c       	mov	r12,0
8000371a:	b0 89       	st.b	r8[0x0],r9
8000371c:	d8 02       	popm	pc
8000371e:	d7 03       	nop

80003720 <fat_check_mount_select_open>:
80003720:	d4 01       	pushm	lr
80003722:	cd 9f       	rcall	800036d4 <fat_check_mount>
80003724:	c1 b0       	breq	8000375a <fat_check_mount_select_open+0x3a>
80003726:	e0 68 29 e0 	mov	r8,10720
8000372a:	90 19       	ld.sh	r9,r8[0x2]
8000372c:	3f f8       	mov	r8,-1
8000372e:	f0 09 19 00 	cp.h	r9,r8
80003732:	c0 71       	brne	80003740 <fat_check_mount_select_open+0x20>
80003734:	30 f9       	mov	r9,15
80003736:	e0 68 29 e4 	mov	r8,10724
8000373a:	30 0c       	mov	r12,0
8000373c:	b0 89       	st.b	r8[0x0],r9
8000373e:	d8 02       	popm	pc
80003740:	e0 68 27 5c 	mov	r8,10076
80003744:	11 89       	ld.ub	r9,r8[0x0]
80003746:	30 08       	mov	r8,0
80003748:	f0 09 18 00 	cp.b	r9,r8
8000374c:	c0 20       	breq	80003750 <fat_check_mount_select_open+0x30>
8000374e:	da 0a       	popm	pc,r12=1
80003750:	31 79       	mov	r9,23
80003752:	e0 68 29 e4 	mov	r8,10724
80003756:	30 0c       	mov	r12,0
80003758:	b0 89       	st.b	r8[0x0],r9
8000375a:	d8 02       	popm	pc

8000375c <fat_check_mount_select_noopen>:
8000375c:	d4 01       	pushm	lr
8000375e:	cb bf       	rcall	800036d4 <fat_check_mount>
80003760:	c0 f0       	breq	8000377e <fat_check_mount_select_noopen+0x22>
80003762:	e0 68 29 e0 	mov	r8,10720
80003766:	90 19       	ld.sh	r9,r8[0x2]
80003768:	3f f8       	mov	r8,-1
8000376a:	f0 09 19 00 	cp.h	r9,r8
8000376e:	c0 71       	brne	8000377c <fat_check_mount_select_noopen+0x20>
80003770:	30 f9       	mov	r9,15
80003772:	e0 68 29 e4 	mov	r8,10724
80003776:	30 0c       	mov	r12,0
80003778:	b0 89       	st.b	r8[0x0],r9
8000377a:	d8 02       	popm	pc
8000377c:	c9 4f       	rcall	800036a4 <fat_check_noopen>
8000377e:	d8 02       	popm	pc

80003780 <fat_check_mount_noopen>:
80003780:	d4 01       	pushm	lr
80003782:	ca 9f       	rcall	800036d4 <fat_check_mount>
80003784:	c0 20       	breq	80003788 <fat_check_mount_noopen+0x8>
80003786:	c8 ff       	rcall	800036a4 <fat_check_noopen>
80003788:	d8 02       	popm	pc
8000378a:	d7 03       	nop

8000378c <fat_mount>:
8000378c:	d4 31       	pushm	r0-r7,lr
8000378e:	20 5d       	sub	sp,20
80003790:	e0 68 29 98 	mov	r8,10648
80003794:	30 06       	mov	r6,0
80003796:	91 86       	st.w	r8[0x20],r6
80003798:	fe b0 fa 56 	rcall	80002c44 <fat_clear_entry_info_and_ptr>
8000379c:	e0 68 29 e0 	mov	r8,10720
800037a0:	b0 86       	st.b	r8[0x0],r6
800037a2:	e0 68 27 58 	mov	r8,10072
800037a6:	91 06       	st.w	r8[0x0],r6
800037a8:	c2 2f       	rcall	800035ec <fat_check_device>
800037aa:	e0 80 01 4a 	breq	80003a3e <fat_mount+0x2b2>
800037ae:	e0 67 27 98 	mov	r7,10136
800037b2:	30 45       	mov	r5,4
800037b4:	ee cb fe 42 	sub	r11,r7,-446
800037b8:	50 1b       	stdsp	sp[0x4],r11
800037ba:	30 1c       	mov	r12,1
800037bc:	fe b0 fc 72 	rcall	800030a0 <fat_cache_read_sector>
800037c0:	e0 80 01 3f 	breq	80003a3e <fat_mount+0x2b2>
800037c4:	ef 39 01 fe 	ld.ub	r9,r7[510]
800037c8:	35 58       	mov	r8,85
800037ca:	f0 09 18 00 	cp.b	r9,r8
800037ce:	c0 90       	breq	800037e0 <fat_mount+0x54>
800037d0:	ef 39 01 ff 	ld.ub	r9,r7[511]
800037d4:	3a a8       	mov	r8,-86
800037d6:	f0 09 18 00 	cp.b	r9,r8
800037da:	c0 30       	breq	800037e0 <fat_mount+0x54>
800037dc:	30 29       	mov	r9,2
800037de:	c6 d8       	rjmp	800038b8 <fat_mount+0x12c>
800037e0:	e0 68 27 58 	mov	r8,10072
800037e4:	70 0b       	ld.w	r11,r8[0x0]
800037e6:	58 0b       	cp.w	r11,0
800037e8:	c5 41       	brne	80003890 <fat_mount+0x104>
800037ea:	40 1a       	lddsp	r10,sp[0x4]
800037ec:	16 99       	mov	r9,r11
800037ee:	30 12       	mov	r2,1
800037f0:	30 63       	mov	r3,6
800037f2:	30 e4       	mov	r4,14
800037f4:	30 be       	mov	lr,11
800037f6:	30 cc       	mov	r12,12
800037f8:	50 0b       	stdsp	sp[0x0],r11
800037fa:	15 88       	ld.ub	r8,r10[0x0]
800037fc:	38 00       	mov	r0,-128
800037fe:	f2 c1 ff ff 	sub	r1,r9,-1
80003802:	e0 08 18 00 	cp.b	r8,r0
80003806:	5f 00       	sreq	r0
80003808:	ec 08 18 00 	cp.b	r8,r6
8000380c:	5f 08       	sreq	r8
8000380e:	00 48       	or	r8,r0
80003810:	ec 08 18 00 	cp.b	r8,r6
80003814:	c1 90       	breq	80003846 <fat_mount+0xba>
80003816:	15 c8       	ld.ub	r8,r10[0x4]
80003818:	ea 08 18 00 	cp.b	r8,r5
8000381c:	5f 0b       	sreq	r11
8000381e:	e4 08 18 00 	cp.b	r8,r2
80003822:	5f 00       	sreq	r0
80003824:	f7 e0 10 00 	or	r0,r11,r0
80003828:	ec 00 18 00 	cp.b	r0,r6
8000382c:	c1 51       	brne	80003856 <fat_mount+0xca>
8000382e:	e6 08 18 00 	cp.b	r8,r3
80003832:	c1 20       	breq	80003856 <fat_mount+0xca>
80003834:	e8 08 18 00 	cp.b	r8,r4
80003838:	c0 f0       	breq	80003856 <fat_mount+0xca>
8000383a:	fc 08 18 00 	cp.b	r8,lr
8000383e:	c0 c0       	breq	80003856 <fat_mount+0xca>
80003840:	f8 08 18 00 	cp.b	r8,r12
80003844:	c0 90       	breq	80003856 <fat_mount+0xca>
80003846:	f3 d1 c0 08 	bfextu	r9,r1,0x0,0x8
8000384a:	2f 0a       	sub	r10,-16
8000384c:	ea 09 18 00 	cp.b	r9,r5
80003850:	cd 51       	brne	800037fa <fat_mount+0x6e>
80003852:	40 0b       	lddsp	r11,sp[0x0]
80003854:	c1 e8       	rjmp	80003890 <fat_mount+0x104>
80003856:	a5 69       	lsl	r9,0x4
80003858:	f2 c9 fe 42 	sub	r9,r9,-446
8000385c:	5c 79       	castu.h	r9
8000385e:	ee 09 00 09 	add	r9,r7,r9
80003862:	f3 38 00 0b 	ld.ub	r8,r9[11]
80003866:	e0 64 27 58 	mov	r4,10072
8000386a:	a8 88       	st.b	r4[0x0],r8
8000386c:	f3 38 00 08 	ld.ub	r8,r9[8]
80003870:	a8 b8       	st.b	r4[0x3],r8
80003872:	f3 38 00 09 	ld.ub	r8,r9[9]
80003876:	a8 a8       	st.b	r4[0x2],r8
80003878:	f3 38 00 0a 	ld.ub	r8,r9[10]
8000387c:	a8 98       	st.b	r4[0x1],r8
8000387e:	e0 68 29 98 	mov	r8,10648
80003882:	68 03       	ld.w	r3,r4[0x0]
80003884:	11 8c       	ld.ub	r12,r8[0x0]
80003886:	e0 a0 11 59 	rcall	80005b38 <mem_sector_size>
8000388a:	a7 3c       	mul	r12,r3
8000388c:	89 0c       	st.w	r4[0x0],r12
8000388e:	c9 6b       	rjmp	800037ba <fat_mount+0x2e>
80003890:	e0 68 27 98 	mov	r8,10136
80003894:	3e b9       	mov	r9,-21
80003896:	11 8a       	ld.ub	r10,r8[0x0]
80003898:	f2 0a 18 00 	cp.b	r10,r9
8000389c:	c0 d1       	brne	800038b6 <fat_mount+0x12a>
8000389e:	11 aa       	ld.ub	r10,r8[0x2]
800038a0:	39 09       	mov	r9,-112
800038a2:	f2 0a 18 00 	cp.b	r10,r9
800038a6:	c0 81       	brne	800038b6 <fat_mount+0x12a>
800038a8:	f1 39 00 15 	ld.ub	r9,r8[21]
800038ac:	e2 19 00 f0 	andl	r9,0xf0,COH
800038b0:	e0 49 00 f0 	cp.w	r9,240
800038b4:	c0 60       	breq	800038c0 <fat_mount+0x134>
800038b6:	30 39       	mov	r9,3
800038b8:	e0 68 29 e4 	mov	r8,10724
800038bc:	b0 89       	st.b	r8[0x0],r9
800038be:	cc 08       	rjmp	80003a3e <fat_mount+0x2b2>
800038c0:	30 09       	mov	r9,0
800038c2:	30 4a       	mov	r10,4
800038c4:	50 39       	stdsp	sp[0xc],r9
800038c6:	e0 69 29 e4 	mov	r9,10724
800038ca:	e0 6c 29 98 	mov	r12,10648
800038ce:	b2 8a       	st.b	r9[0x0],r10
800038d0:	f1 39 00 0c 	ld.ub	r9,r8[12]
800038d4:	f1 3a 00 0d 	ld.ub	r10,r8[13]
800038d8:	a1 99       	lsr	r9,0x1
800038da:	b3 3a       	mul	r10,r9
800038dc:	5c 5a       	castu.b	r10
800038de:	b8 9a       	st.b	r12[0x1],r10
800038e0:	fa c7 ff f1 	sub	r7,sp,-15
800038e4:	f1 3c 00 16 	ld.ub	r12,r8[22]
800038e8:	ae 8c       	st.b	r7[0x0],r12
800038ea:	fa ce ff f2 	sub	lr,sp,-14
800038ee:	f1 3c 00 17 	ld.ub	r12,r8[23]
800038f2:	bc 8c       	st.b	lr[0x0],r12
800038f4:	fa cc ff f4 	sub	r12,sp,-12
800038f8:	40 36       	lddsp	r6,sp[0xc]
800038fa:	58 06       	cp.w	r6,0
800038fc:	c0 d1       	brne	80003916 <fat_mount+0x18a>
800038fe:	f1 36 00 27 	ld.ub	r6,r8[39]
80003902:	b8 86       	st.b	r12[0x0],r6
80003904:	f1 36 00 24 	ld.ub	r6,r8[36]
80003908:	ae 86       	st.b	r7[0x0],r6
8000390a:	f1 36 00 25 	ld.ub	r6,r8[37]
8000390e:	bc 86       	st.b	lr[0x0],r6
80003910:	f1 38 00 26 	ld.ub	r8,r8[38]
80003914:	b8 98       	st.b	r12[0x1],r8
80003916:	e0 68 29 98 	mov	r8,10648
8000391a:	40 35       	lddsp	r5,sp[0xc]
8000391c:	f2 05 02 45 	mul	r5,r9,r5
80003920:	91 15       	st.w	r8[0x4],r5
80003922:	e0 68 27 98 	mov	r8,10136
80003926:	f1 36 00 13 	ld.ub	r6,r8[19]
8000392a:	58 06       	cp.w	r6,0
8000392c:	c1 31       	brne	80003952 <fat_mount+0x1c6>
8000392e:	f1 33 00 14 	ld.ub	r3,r8[20]
80003932:	ec 03 18 00 	cp.b	r3,r6
80003936:	c0 e1       	brne	80003952 <fat_mount+0x1c6>
80003938:	f1 36 00 23 	ld.ub	r6,r8[35]
8000393c:	b8 86       	st.b	r12[0x0],r6
8000393e:	f1 36 00 20 	ld.ub	r6,r8[32]
80003942:	ae 86       	st.b	r7[0x0],r6
80003944:	f1 37 00 21 	ld.ub	r7,r8[33]
80003948:	bc 87       	st.b	lr[0x0],r7
8000394a:	f1 38 00 22 	ld.ub	r8,r8[34]
8000394e:	b8 98       	st.b	r12[0x1],r8
80003950:	c0 a8       	rjmp	80003964 <fat_mount+0x1d8>
80003952:	ae 86       	st.b	r7[0x0],r6
80003954:	30 08       	mov	r8,0
80003956:	b8 88       	st.b	r12[0x0],r8
80003958:	b8 98       	st.b	r12[0x1],r8
8000395a:	e0 68 27 98 	mov	r8,10136
8000395e:	f1 38 00 14 	ld.ub	r8,r8[20]
80003962:	bc 88       	st.b	lr[0x0],r8
80003964:	e0 68 29 98 	mov	r8,10648
80003968:	e0 6c 27 98 	mov	r12,10136
8000396c:	a1 75       	lsl	r5,0x1
8000396e:	f9 3e 00 11 	ld.ub	lr,r12[17]
80003972:	f1 55 00 18 	st.h	r8[24],r5
80003976:	40 34       	lddsp	r4,sp[0xc]
80003978:	fa c7 ff ec 	sub	r7,sp,-20
8000397c:	0e fe       	st.b	--r7,lr
8000397e:	f9 3e 00 12 	ld.ub	lr,r12[18]
80003982:	fa c6 ff ee 	sub	r6,sp,-18
80003986:	ac 8e       	st.b	r6[0x0],lr
80003988:	fb 1e 00 12 	ld.uh	lr,sp[18]
8000398c:	f2 03 15 04 	lsl	r3,r9,0x4
80003990:	1c 03       	add	r3,lr
80003992:	f2 0e 15 09 	lsl	lr,r9,0x9
80003996:	a5 73       	lsl	r3,0x5
80003998:	20 13       	sub	r3,1
8000399a:	e6 0e 0c 02 	divs	r2,r3,lr
8000399e:	f2 02 02 4e 	mul	lr,r9,r2
800039a2:	f1 5e 00 1a 	st.h	r8[26],lr
800039a6:	f9 33 00 0e 	ld.ub	r3,r12[14]
800039aa:	ae 83       	st.b	r7[0x0],r3
800039ac:	5c 7e       	castu.h	lr
800039ae:	0a 0e       	add	lr,r5
800039b0:	91 5e       	st.w	r8[0x14],lr
800039b2:	f9 35 00 30 	ld.ub	r5,r12[48]
800039b6:	f9 3c 00 0f 	ld.ub	r12,r12[15]
800039ba:	ac 8c       	st.b	r6[0x0],r12
800039bc:	fb 07 00 12 	ld.sh	r7,sp[18]
800039c0:	f2 07 02 4c 	mul	r12,r9,r7
800039c4:	5c 77       	castu.h	r7
800039c6:	5c 7c       	castu.h	r12
800039c8:	0a 17       	sub	r7,r5
800039ca:	18 0b       	add	r11,r12
800039cc:	b3 37       	mul	r7,r9
800039ce:	91 4b       	st.w	r8[0x10],r11
800039d0:	b0 47       	st.h	r8[0x8],r7
800039d2:	58 0a       	cp.w	r10,0
800039d4:	c3 50       	breq	80003a3e <fat_mount+0x2b2>
800039d6:	a9 39       	mul	r9,r4
800039d8:	30 18       	mov	r8,1
800039da:	18 19       	sub	r9,r12
800039dc:	1c 19       	sub	r9,lr
800039de:	c0 38       	rjmp	800039e4 <fat_mount+0x258>
800039e0:	a1 99       	lsr	r9,0x1
800039e2:	a1 9a       	lsr	r10,0x1
800039e4:	f0 0a 18 00 	cp.b	r10,r8
800039e8:	cf c1       	brne	800039e0 <fat_mount+0x254>
800039ea:	e0 68 29 98 	mov	r8,10648
800039ee:	f2 cb ff fe 	sub	r11,r9,-2
800039f2:	91 3b       	st.w	r8[0xc],r11
800039f4:	e0 49 0f f4 	cp.w	r9,4084
800039f8:	e0 8b 00 06 	brhi	80003a04 <fat_mount+0x278>
800039fc:	e0 68 29 e0 	mov	r8,10720
80003a00:	b0 8a       	st.b	r8[0x0],r10
80003a02:	c1 c8       	rjmp	80003a3a <fat_mount+0x2ae>
80003a04:	e0 6a 29 e0 	mov	r10,10720
80003a08:	e0 49 ff f4 	cp.w	r9,65524
80003a0c:	e0 8b 00 06 	brhi	80003a18 <fat_mount+0x28c>
80003a10:	30 28       	mov	r8,2
80003a12:	b4 88       	st.b	r10[0x0],r8
80003a14:	c1 38       	rjmp	80003a3a <fat_mount+0x2ae>
80003a16:	d7 03       	nop
80003a18:	2e 88       	sub	r8,-24
80003a1a:	e0 69 27 98 	mov	r9,10136
80003a1e:	f3 3b 00 2f 	ld.ub	r11,r9[47]
80003a22:	b0 8b       	st.b	r8[0x0],r11
80003a24:	30 3b       	mov	r11,3
80003a26:	b4 8b       	st.b	r10[0x0],r11
80003a28:	f3 3a 00 2c 	ld.ub	r10,r9[44]
80003a2c:	b0 ba       	st.b	r8[0x3],r10
80003a2e:	f3 3a 00 2d 	ld.ub	r10,r9[45]
80003a32:	b0 aa       	st.b	r8[0x2],r10
80003a34:	f3 39 00 2e 	ld.ub	r9,r9[46]
80003a38:	b0 99       	st.b	r8[0x1],r9
80003a3a:	30 1c       	mov	r12,1
80003a3c:	c0 28       	rjmp	80003a40 <fat_mount+0x2b4>
80003a3e:	30 0c       	mov	r12,0
80003a40:	2f bd       	sub	sp,-20
80003a42:	d8 32       	popm	r0-r7,pc

80003a44 <file_close>:
80003a44:	d4 01       	pushm	lr
80003a46:	c6 de       	rcall	80003720 <fat_check_mount_select_open>
80003a48:	c0 50       	breq	80003a52 <file_close+0xe>
80003a4a:	30 09       	mov	r9,0
80003a4c:	e0 68 27 5c 	mov	r8,10076
80003a50:	b0 89       	st.b	r8[0x0],r9
80003a52:	d8 02       	popm	pc

80003a54 <file_eof>:
80003a54:	d4 01       	pushm	lr
80003a56:	c6 5e       	rcall	80003720 <fat_check_mount_select_open>
80003a58:	c0 41       	brne	80003a60 <file_eof+0xc>
80003a5a:	e0 6c 00 ff 	mov	r12,255
80003a5e:	d8 02       	popm	pc
80003a60:	e0 68 27 5c 	mov	r8,10076
80003a64:	70 39       	ld.w	r9,r8[0xc]
80003a66:	70 28       	ld.w	r8,r8[0x8]
80003a68:	12 38       	cp.w	r8,r9
80003a6a:	5f 8c       	srls	r12
80003a6c:	d8 02       	popm	pc
80003a6e:	d7 03       	nop

80003a70 <file_bof>:
80003a70:	d4 01       	pushm	lr
80003a72:	c5 7e       	rcall	80003720 <fat_check_mount_select_open>
80003a74:	c0 41       	brne	80003a7c <file_bof+0xc>
80003a76:	e0 6c 00 ff 	mov	r12,255
80003a7a:	d8 02       	popm	pc
80003a7c:	e0 68 27 5c 	mov	r8,10076
80003a80:	70 38       	ld.w	r8,r8[0xc]
80003a82:	58 08       	cp.w	r8,0
80003a84:	5f 0c       	sreq	r12
80003a86:	d8 02       	popm	pc

80003a88 <file_seek>:
80003a88:	d4 21       	pushm	r4-r7,lr
80003a8a:	18 97       	mov	r7,r12
80003a8c:	16 96       	mov	r6,r11
80003a8e:	c4 9e       	rcall	80003720 <fat_check_mount_select_open>
80003a90:	c3 10       	breq	80003af2 <file_seek+0x6a>
80003a92:	30 18       	mov	r8,1
80003a94:	f0 06 18 00 	cp.b	r6,r8
80003a98:	c1 50       	breq	80003ac2 <file_seek+0x3a>
80003a9a:	c0 e3       	brcs	80003ab6 <file_seek+0x2e>
80003a9c:	30 28       	mov	r8,2
80003a9e:	f0 06 18 00 	cp.b	r6,r8
80003aa2:	c0 60       	breq	80003aae <file_seek+0x26>
80003aa4:	30 38       	mov	r8,3
80003aa6:	f0 06 18 00 	cp.b	r6,r8
80003aaa:	c1 41       	brne	80003ad2 <file_seek+0x4a>
80003aac:	c1 48       	rjmp	80003ad4 <file_seek+0x4c>
80003aae:	e0 68 27 5c 	mov	r8,10076
80003ab2:	70 39       	ld.w	r9,r8[0xc]
80003ab4:	c0 a8       	rjmp	80003ac8 <file_seek+0x40>
80003ab6:	e0 68 27 5c 	mov	r8,10076
80003aba:	70 29       	ld.w	r9,r8[0x8]
80003abc:	0e 39       	cp.w	r9,r7
80003abe:	c0 92       	brcc	80003ad0 <file_seek+0x48>
80003ac0:	c1 18       	rjmp	80003ae2 <file_seek+0x5a>
80003ac2:	e0 68 27 5c 	mov	r8,10076
80003ac6:	70 29       	ld.w	r9,r8[0x8]
80003ac8:	0e 39       	cp.w	r9,r7
80003aca:	c0 c3       	brcs	80003ae2 <file_seek+0x5a>
80003acc:	f2 07 01 07 	sub	r7,r9,r7
80003ad0:	91 37       	st.w	r8[0xc],r7
80003ad2:	da 2a       	popm	r4-r7,pc,r12=1
80003ad4:	e0 68 27 5c 	mov	r8,10076
80003ad8:	70 39       	ld.w	r9,r8[0xc]
80003ada:	12 07       	add	r7,r9
80003adc:	70 29       	ld.w	r9,r8[0x8]
80003ade:	0e 39       	cp.w	r9,r7
80003ae0:	c0 72       	brcc	80003aee <file_seek+0x66>
80003ae2:	30 79       	mov	r9,7
80003ae4:	e0 68 29 e4 	mov	r8,10724
80003ae8:	30 0c       	mov	r12,0
80003aea:	b0 89       	st.b	r8[0x0],r9
80003aec:	d8 22       	popm	r4-r7,pc
80003aee:	91 37       	st.w	r8[0xc],r7
80003af0:	30 1c       	mov	r12,1
80003af2:	d8 22       	popm	r4-r7,pc

80003af4 <file_getpos>:
80003af4:	d4 01       	pushm	lr
80003af6:	c1 5e       	rcall	80003720 <fat_check_mount_select_open>
80003af8:	c0 40       	breq	80003b00 <file_getpos+0xc>
80003afa:	e0 68 27 5c 	mov	r8,10076
80003afe:	70 3c       	ld.w	r12,r8[0xc]
80003b00:	d8 02       	popm	pc
80003b02:	d7 03       	nop

80003b04 <file_getc>:
80003b04:	d4 21       	pushm	r4-r7,lr
80003b06:	e0 67 27 5c 	mov	r7,10076
80003b0a:	0f 88       	ld.ub	r8,r7[0x0]
80003b0c:	ed b8 00 00 	bld	r8,0x0
80003b10:	c0 30       	breq	80003b16 <file_getc+0x12>
80003b12:	31 e9       	mov	r9,30
80003b14:	c0 78       	rjmp	80003b22 <file_getc+0x1e>
80003b16:	6e 29       	ld.w	r9,r7[0x8]
80003b18:	6e 38       	ld.w	r8,r7[0xc]
80003b1a:	10 39       	cp.w	r9,r8
80003b1c:	e0 8b 00 06 	brhi	80003b28 <file_getc+0x24>
80003b20:	32 09       	mov	r9,32
80003b22:	e0 68 29 e4 	mov	r8,10724
80003b26:	c0 d8       	rjmp	80003b40 <file_getc+0x3c>
80003b28:	30 2c       	mov	r12,2
80003b2a:	fe b0 fd 09 	rcall	8000353c <fat_read_file>
80003b2e:	c0 b1       	brne	80003b44 <file_getc+0x40>
80003b30:	e0 68 29 e4 	mov	r8,10724
80003b34:	31 a9       	mov	r9,26
80003b36:	11 8a       	ld.ub	r10,r8[0x0]
80003b38:	f2 0a 18 00 	cp.b	r10,r9
80003b3c:	c0 31       	brne	80003b42 <file_getc+0x3e>
80003b3e:	32 09       	mov	r9,32
80003b40:	b0 89       	st.b	r8[0x0],r9
80003b42:	dc 2a       	popm	r4-r7,pc,r12=-1
80003b44:	6e 38       	ld.w	r8,r7[0xc]
80003b46:	f0 c9 ff ff 	sub	r9,r8,-1
80003b4a:	f1 d8 c0 09 	bfextu	r8,r8,0x0,0x9
80003b4e:	8f 39       	st.w	r7[0xc],r9
80003b50:	e0 69 27 98 	mov	r9,10136
80003b54:	f2 08 07 0c 	ld.ub	r12,r9[r8]
80003b58:	d8 22       	popm	r4-r7,pc
80003b5a:	d7 03       	nop

80003b5c <file_read_buf>:
80003b5c:	d4 31       	pushm	r0-r7,lr
80003b5e:	20 1d       	sub	sp,4
80003b60:	18 95       	mov	r5,r12
80003b62:	16 96       	mov	r6,r11
80003b64:	fe b0 fd de 	rcall	80003720 <fat_check_mount_select_open>
80003b68:	c0 31       	brne	80003b6e <file_read_buf+0x12>
80003b6a:	18 94       	mov	r4,r12
80003b6c:	c9 58       	rjmp	80003c96 <file_read_buf+0x13a>
80003b6e:	e0 62 27 5c 	mov	r2,10076
80003b72:	05 84       	ld.ub	r4,r2[0x0]
80003b74:	e9 d4 c0 01 	bfextu	r4,r4,0x0,0x1
80003b78:	c0 90       	breq	80003b8a <file_read_buf+0x2e>
80003b7a:	30 04       	mov	r4,0
80003b7c:	e0 60 27 98 	mov	r0,10136
80003b80:	e0 61 01 ff 	mov	r1,511
80003b84:	e0 67 2a 3c 	mov	r7,10812
80003b88:	c8 48       	rjmp	80003c90 <file_read_buf+0x134>
80003b8a:	31 e9       	mov	r9,30
80003b8c:	c0 48       	rjmp	80003b94 <file_read_buf+0x38>
80003b8e:	c6 3f       	rcall	80003a54 <file_eof>
80003b90:	c0 60       	breq	80003b9c <file_read_buf+0x40>
80003b92:	32 09       	mov	r9,32
80003b94:	e0 68 29 e4 	mov	r8,10724
80003b98:	b0 89       	st.b	r8[0x0],r9
80003b9a:	c7 e8       	rjmp	80003c96 <file_read_buf+0x13a>
80003b9c:	64 38       	ld.w	r8,r2[0xc]
80003b9e:	64 23       	ld.w	r3,r2[0x8]
80003ba0:	f7 d8 c0 09 	bfextu	r11,r8,0x0,0x9
80003ba4:	10 13       	sub	r3,r8
80003ba6:	f8 0b 19 00 	cp.h	r11,r12
80003baa:	5f 0a       	sreq	r10
80003bac:	e0 43 01 ff 	cp.w	r3,511
80003bb0:	5f b8       	srhi	r8
80003bb2:	f5 e8 00 08 	and	r8,r10,r8
80003bb6:	f8 08 18 00 	cp.b	r8,r12
80003bba:	c3 a0       	breq	80003c2e <file_read_buf+0xd2>
80003bbc:	e2 06 19 00 	cp.h	r6,r1
80003bc0:	e0 88 00 37 	brls	80003c2e <file_read_buf+0xd2>
80003bc4:	f1 d5 c0 02 	bfextu	r8,r5,0x0,0x2
80003bc8:	c3 31       	brne	80003c2e <file_read_buf+0xd2>
80003bca:	f1 d6 c0 10 	bfextu	r8,r6,0x0,0x10
80003bce:	06 38       	cp.w	r8,r3
80003bd0:	e0 8b 00 05 	brhi	80003bda <file_read_buf+0x7e>
80003bd4:	e7 d6 b0 10 	bfexts	r3,r6,0x0,0x10
80003bd8:	c0 28       	rjmp	80003bdc <file_read_buf+0x80>
80003bda:	5c 83       	casts.h	r3
80003bdc:	30 1c       	mov	r12,1
80003bde:	fe b0 fc af 	rcall	8000353c <fat_read_file>
80003be2:	c2 c0       	breq	80003c3a <file_read_buf+0xde>
80003be4:	e7 d3 c1 27 	bfextu	r3,r3,0x9,0x7
80003be8:	6e 19       	ld.w	r9,r7[0x4]
80003bea:	f1 d3 c0 10 	bfextu	r8,r3,0x0,0x10
80003bee:	12 38       	cp.w	r8,r9
80003bf0:	e0 88 00 05 	brls	80003bfa <file_read_buf+0x9e>
80003bf4:	e7 d9 b0 10 	bfexts	r3,r9,0x0,0x10
80003bf8:	c1 58       	rjmp	80003c22 <file_read_buf+0xc6>
80003bfa:	8f 18       	st.w	r7[0x4],r8
80003bfc:	c1 38       	rjmp	80003c22 <file_read_buf+0xc6>
80003bfe:	e0 68 29 98 	mov	r8,10648
80003c02:	0a 9a       	mov	r10,r5
80003c04:	6e 0b       	ld.w	r11,r7[0x0]
80003c06:	ea c5 fe 00 	sub	r5,r5,-512
80003c0a:	11 8c       	ld.ub	r12,r8[0x0]
80003c0c:	e0 a0 0f d8 	rcall	80005bbc <memory_2_ram>
80003c10:	c0 30       	breq	80003c16 <file_read_buf+0xba>
80003c12:	30 19       	mov	r9,1
80003c14:	cc 0b       	rjmp	80003b94 <file_read_buf+0x38>
80003c16:	6e 18       	ld.w	r8,r7[0x4]
80003c18:	20 18       	sub	r8,1
80003c1a:	8f 18       	st.w	r7[0x4],r8
80003c1c:	6e 08       	ld.w	r8,r7[0x0]
80003c1e:	2f f8       	sub	r8,-1
80003c20:	8f 08       	st.w	r7[0x0],r8
80003c22:	6e 18       	ld.w	r8,r7[0x4]
80003c24:	58 08       	cp.w	r8,0
80003c26:	ce c1       	brne	80003bfe <file_read_buf+0xa2>
80003c28:	a9 73       	lsl	r3,0x9
80003c2a:	5c 83       	casts.h	r3
80003c2c:	c2 98       	rjmp	80003c7e <file_read_buf+0x122>
80003c2e:	50 0b       	stdsp	sp[0x0],r11
80003c30:	30 2c       	mov	r12,2
80003c32:	fe b0 fc 85 	rcall	8000353c <fat_read_file>
80003c36:	40 0b       	lddsp	r11,sp[0x0]
80003c38:	c0 a1       	brne	80003c4c <file_read_buf+0xf0>
80003c3a:	e0 68 29 e4 	mov	r8,10724
80003c3e:	31 a9       	mov	r9,26
80003c40:	11 8a       	ld.ub	r10,r8[0x0]
80003c42:	f2 0a 18 00 	cp.b	r10,r9
80003c46:	c2 81       	brne	80003c96 <file_read_buf+0x13a>
80003c48:	32 09       	mov	r9,32
80003c4a:	ca 7b       	rjmp	80003b98 <file_read_buf+0x3c>
80003c4c:	e0 68 02 00 	mov	r8,512
80003c50:	16 18       	sub	r8,r11
80003c52:	5c 88       	casts.h	r8
80003c54:	f3 d8 c0 10 	bfextu	r9,r8,0x0,0x10
80003c58:	06 39       	cp.w	r9,r3
80003c5a:	e0 88 00 04 	brls	80003c62 <file_read_buf+0x106>
80003c5e:	f1 d3 b0 10 	bfexts	r8,r3,0x0,0x10
80003c62:	f0 06 19 00 	cp.h	r6,r8
80003c66:	f0 03 17 20 	movhs	r3,r8
80003c6a:	ec 03 17 30 	movlo	r3,r6
80003c6e:	0a 9c       	mov	r12,r5
80003c70:	e0 0b 00 0b 	add	r11,r0,r11
80003c74:	f5 d3 c0 10 	bfextu	r10,r3,0x0,0x10
80003c78:	14 05       	add	r5,r10
80003c7a:	e0 a0 19 d5 	rcall	80007024 <memcpy>
80003c7e:	06 16       	sub	r6,r3
80003c80:	e6 04 00 04 	add	r4,r3,r4
80003c84:	64 38       	ld.w	r8,r2[0xc]
80003c86:	5c 73       	castu.h	r3
80003c88:	5c 86       	casts.h	r6
80003c8a:	10 03       	add	r3,r8
80003c8c:	5c 84       	casts.h	r4
80003c8e:	85 33       	st.w	r2[0xc],r3
80003c90:	58 06       	cp.w	r6,0
80003c92:	fe 91 ff 7e 	brne	80003b8e <file_read_buf+0x32>
80003c96:	08 9c       	mov	r12,r4
80003c98:	2f fd       	sub	sp,-4
80003c9a:	d8 32       	popm	r0-r7,pc

80003c9c <file_open>:
80003c9c:	d4 21       	pushm	r4-r7,lr
80003c9e:	18 97       	mov	r7,r12
80003ca0:	fe b0 fd 5e 	rcall	8000375c <fat_check_mount_select_noopen>
80003ca4:	c2 b0       	breq	80003cfa <file_open+0x5e>
80003ca6:	fe b0 f6 2f 	rcall	80002904 <fat_check_is_file>
80003caa:	c2 80       	breq	80003cfa <file_open+0x5e>
80003cac:	0e 96       	mov	r6,r7
80003cae:	e2 16 00 02 	andl	r6,0x2,COH
80003cb2:	c0 b0       	breq	80003cc8 <file_open+0x2c>
80003cb4:	30 1c       	mov	r12,1
80003cb6:	fe b0 f9 39 	rcall	80002f28 <fat_check_nav_access_file>
80003cba:	c2 00       	breq	80003cfa <file_open+0x5e>
80003cbc:	31 f9       	mov	r9,31
80003cbe:	e0 68 29 e4 	mov	r8,10724
80003cc2:	30 0c       	mov	r12,0
80003cc4:	b0 89       	st.b	r8[0x0],r9
80003cc6:	d8 22       	popm	r4-r7,pc
80003cc8:	0c 9c       	mov	r12,r6
80003cca:	fe b0 f9 2f 	rcall	80002f28 <fat_check_nav_access_file>
80003cce:	c1 60       	breq	80003cfa <file_open+0x5e>
80003cd0:	ed b7 00 02 	bld	r7,0x2
80003cd4:	c0 41       	brne	80003cdc <file_open+0x40>
80003cd6:	e0 68 27 5c 	mov	r8,10076
80003cda:	91 26       	st.w	r8[0x8],r6
80003cdc:	0e 99       	mov	r9,r7
80003cde:	e0 68 27 5c 	mov	r8,10076
80003ce2:	e2 19 00 08 	andl	r9,0x8,COH
80003ce6:	c0 30       	breq	80003cec <file_open+0x50>
80003ce8:	30 09       	mov	r9,0
80003cea:	c0 28       	rjmp	80003cee <file_open+0x52>
80003cec:	70 29       	ld.w	r9,r8[0x8]
80003cee:	91 39       	st.w	r8[0xc],r9
80003cf0:	30 1c       	mov	r12,1
80003cf2:	e0 68 27 5c 	mov	r8,10076
80003cf6:	b0 87       	st.b	r8[0x0],r7
80003cf8:	d8 22       	popm	r4-r7,pc
80003cfa:	d8 2a       	popm	r4-r7,pc,r12=0

80003cfc <nav_file_name>:
80003cfc:	d4 31       	pushm	r0-r7,lr
80003cfe:	20 1d       	sub	sp,4
80003d00:	18 97       	mov	r7,r12
80003d02:	16 96       	mov	r6,r11
80003d04:	14 91       	mov	r1,r10
80003d06:	50 09       	stdsp	sp[0x0],r9
80003d08:	fe b0 fc fa 	rcall	800036fc <fat_check_mount_select>
80003d0c:	c5 40       	breq	80003db4 <nav_file_name+0xb8>
80003d0e:	58 01       	cp.w	r1,0
80003d10:	c0 30       	breq	80003d16 <nav_file_name+0x1a>
80003d12:	58 06       	cp.w	r6,0
80003d14:	c3 20       	breq	80003d78 <nav_file_name+0x7c>
80003d16:	e0 68 29 e0 	mov	r8,10720
80003d1a:	90 15       	ld.sh	r5,r8[0x2]
80003d1c:	58 05       	cp.w	r5,0
80003d1e:	c0 31       	brne	80003d24 <nav_file_name+0x28>
80003d20:	30 13       	mov	r3,1
80003d22:	c0 58       	rjmp	80003d2c <nav_file_name+0x30>
80003d24:	ea c9 00 01 	sub	r9,r5,1
80003d28:	30 03       	mov	r3,0
80003d2a:	b0 19       	st.h	r8[0x2],r9
80003d2c:	30 04       	mov	r4,0
80003d2e:	e0 60 29 e5 	mov	r0,10725
80003d32:	e0 62 29 e0 	mov	r2,10720
80003d36:	c0 28       	rjmp	80003d3a <nav_file_name+0x3e>
80003d38:	30 13       	mov	r3,1
80003d3a:	fe b0 fb d1 	rcall	800034dc <fat_read_dir>
80003d3e:	c3 b0       	breq	80003db4 <nav_file_name+0xb8>
80003d40:	58 03       	cp.w	r3,0
80003d42:	c0 70       	breq	80003d50 <nav_file_name+0x54>
80003d44:	02 9a       	mov	r10,r1
80003d46:	0c 9b       	mov	r11,r6
80003d48:	0e 9c       	mov	r12,r7
80003d4a:	fe b0 f7 93 	rcall	80002c70 <fat_entry_shortname>
80003d4e:	c3 48       	rjmp	80003db6 <nav_file_name+0xba>
80003d50:	40 09       	lddsp	r9,sp[0x0]
80003d52:	02 9a       	mov	r10,r1
80003d54:	0c 9b       	mov	r11,r6
80003d56:	0e 9c       	mov	r12,r7
80003d58:	fe b0 f8 0a 	rcall	80002d6c <fat_entry_longname>
80003d5c:	c1 00       	breq	80003d7c <nav_file_name+0x80>
80003d5e:	e0 68 29 e5 	mov	r8,10725
80003d62:	11 88       	ld.ub	r8,r8[0x0]
80003d64:	e6 08 18 00 	cp.b	r8,r3
80003d68:	c0 50       	breq	80003d72 <nav_file_name+0x76>
80003d6a:	8e 08       	ld.sh	r8,r7[0x0]
80003d6c:	f0 04 00 04 	add	r4,r8,r4
80003d70:	ae 04       	st.h	r7[0x0],r4
80003d72:	e0 68 29 e0 	mov	r8,10720
80003d76:	b0 15       	st.h	r8[0x2],r5
80003d78:	30 1c       	mov	r12,1
80003d7a:	c1 e8       	rjmp	80003db6 <nav_file_name+0xba>
80003d7c:	e0 69 29 e4 	mov	r9,10724
80003d80:	13 88       	ld.ub	r8,r9[0x0]
80003d82:	31 09       	mov	r9,16
80003d84:	f2 08 18 00 	cp.b	r8,r9
80003d88:	c0 70       	breq	80003d96 <nav_file_name+0x9a>
80003d8a:	a4 15       	st.h	r2[0x2],r5
80003d8c:	30 b9       	mov	r9,11
80003d8e:	f2 08 18 00 	cp.b	r8,r9
80003d92:	c1 11       	brne	80003db4 <nav_file_name+0xb8>
80003d94:	cd 2b       	rjmp	80003d38 <nav_file_name+0x3c>
80003d96:	01 88       	ld.ub	r8,r0[0x0]
80003d98:	30 09       	mov	r9,0
80003d9a:	f2 08 18 00 	cp.b	r8,r9
80003d9e:	c0 40       	breq	80003da6 <nav_file_name+0xaa>
80003da0:	2f 34       	sub	r4,-13
80003da2:	5c 84       	casts.h	r4
80003da4:	c0 48       	rjmp	80003dac <nav_file_name+0xb0>
80003da6:	20 d6       	sub	r6,13
80003da8:	2f 37       	sub	r7,-13
80003daa:	5c 56       	castu.b	r6
80003dac:	84 18       	ld.sh	r8,r2[0x2]
80003dae:	20 18       	sub	r8,1
80003db0:	a4 18       	st.h	r2[0x2],r8
80003db2:	cc 4b       	rjmp	80003d3a <nav_file_name+0x3e>
80003db4:	30 0c       	mov	r12,0
80003db6:	2f fd       	sub	sp,-4
80003db8:	d8 32       	popm	r0-r7,pc
80003dba:	d7 03       	nop

80003dbc <nav_filelist_set>:
80003dbc:	d4 31       	pushm	r0-r7,lr
80003dbe:	20 4d       	sub	sp,16
80003dc0:	18 97       	mov	r7,r12
80003dc2:	50 0b       	stdsp	sp[0x0],r11
80003dc4:	fe b0 fc de 	rcall	80003780 <fat_check_mount_noopen>
80003dc8:	e0 80 00 92 	breq	80003eec <nav_filelist_set+0x130>
80003dcc:	e0 68 29 98 	mov	r8,10648
80003dd0:	e0 69 29 e0 	mov	r9,10720
80003dd4:	f1 0a 00 24 	ld.sh	r10,r8[36]
80003dd8:	10 96       	mov	r6,r8
80003dda:	12 93       	mov	r3,r9
80003ddc:	30 04       	mov	r4,0
80003dde:	92 19       	ld.sh	r9,r9[0x2]
80003de0:	f1 38 00 2c 	ld.ub	r8,r8[44]
80003de4:	50 29       	stdsp	sp[0x8],r9
80003de6:	50 1a       	stdsp	sp[0x4],r10
80003de8:	50 38       	stdsp	sp[0xc],r8
80003dea:	3f f0       	mov	r0,-1
80003dec:	08 95       	mov	r5,r4
80003dee:	e0 61 29 e4 	mov	r1,10724
80003df2:	31 a2       	mov	r2,26
80003df4:	40 09       	lddsp	r9,sp[0x0]
80003df6:	58 09       	cp.w	r9,0
80003df8:	c0 31       	brne	80003dfe <nav_filelist_set+0x42>
80003dfa:	58 04       	cp.w	r4,0
80003dfc:	c0 a0       	breq	80003e10 <nav_filelist_set+0x54>
80003dfe:	86 18       	ld.sh	r8,r3[0x2]
80003e00:	3f ea       	mov	r10,-2
80003e02:	f4 08 19 00 	cp.h	r8,r10
80003e06:	c0 31       	brne	80003e0c <nav_filelist_set+0x50>
80003e08:	30 89       	mov	r9,8
80003e0a:	c0 88       	rjmp	80003e1a <nav_filelist_set+0x5e>
80003e0c:	2f f8       	sub	r8,-1
80003e0e:	c1 98       	rjmp	80003e40 <nav_filelist_set+0x84>
80003e10:	86 18       	ld.sh	r8,r3[0x2]
80003e12:	e0 08 19 00 	cp.h	r8,r0
80003e16:	c0 61       	brne	80003e22 <nav_filelist_set+0x66>
80003e18:	30 99       	mov	r9,9
80003e1a:	e0 68 29 e4 	mov	r8,10724
80003e1e:	b0 89       	st.b	r8[0x0],r9
80003e20:	c5 78       	rjmp	80003ece <nav_filelist_set+0x112>
80003e22:	58 08       	cp.w	r8,0
80003e24:	c0 d1       	brne	80003e3e <nav_filelist_set+0x82>
80003e26:	ed 38 00 2c 	ld.ub	r8,r6[44]
80003e2a:	ea 08 18 00 	cp.b	r8,r5
80003e2e:	cf 50       	breq	80003e18 <nav_filelist_set+0x5c>
80003e30:	ed 38 00 2d 	ld.ub	r8,r6[45]
80003e34:	ea 08 18 00 	cp.b	r8,r5
80003e38:	cf 01       	brne	80003e18 <nav_filelist_set+0x5c>
80003e3a:	30 14       	mov	r4,1
80003e3c:	c0 38       	rjmp	80003e42 <nav_filelist_set+0x86>
80003e3e:	20 18       	sub	r8,1
80003e40:	a6 18       	st.h	r3[0x2],r8
80003e42:	fe b0 fb 4d 	rcall	800034dc <fat_read_dir>
80003e46:	c0 61       	brne	80003e52 <nav_filelist_set+0x96>
80003e48:	03 88       	ld.ub	r8,r1[0x0]
80003e4a:	e4 08 18 00 	cp.b	r8,r2
80003e4e:	c1 f0       	breq	80003e8c <nav_filelist_set+0xd0>
80003e50:	c3 f8       	rjmp	80003ece <nav_filelist_set+0x112>
80003e52:	ed 38 00 2c 	ld.ub	r8,r6[44]
80003e56:	ea 08 18 00 	cp.b	r8,r5
80003e5a:	5f 1c       	srne	r12
80003e5c:	fe b0 f6 96 	rcall	80002b88 <fat_entry_check>
80003e60:	c1 60       	breq	80003e8c <nav_filelist_set+0xd0>
80003e62:	58 04       	cp.w	r4,0
80003e64:	cc 81       	brne	80003df4 <nav_filelist_set+0x38>
80003e66:	ed 08 00 24 	ld.sh	r8,r6[36]
80003e6a:	40 09       	lddsp	r9,sp[0x0]
80003e6c:	58 09       	cp.w	r9,0
80003e6e:	c0 30       	breq	80003e74 <nav_filelist_set+0xb8>
80003e70:	2f f8       	sub	r8,-1
80003e72:	c0 28       	rjmp	80003e76 <nav_filelist_set+0xba>
80003e74:	20 18       	sub	r8,1
80003e76:	ed 58 00 24 	st.h	r6[36],r8
80003e7a:	58 07       	cp.w	r7,0
80003e7c:	c0 51       	brne	80003e86 <nav_filelist_set+0xca>
80003e7e:	fe b0 f6 af 	rcall	80002bdc <fat_get_entry_info>
80003e82:	30 1c       	mov	r12,1
80003e84:	c3 48       	rjmp	80003eec <nav_filelist_set+0x130>
80003e86:	20 17       	sub	r7,1
80003e88:	5c 87       	casts.h	r7
80003e8a:	cb 5b       	rjmp	80003df4 <nav_filelist_set+0x38>
80003e8c:	03 88       	ld.ub	r8,r1[0x0]
80003e8e:	30 aa       	mov	r10,10
80003e90:	f4 08 18 00 	cp.b	r8,r10
80003e94:	5f 09       	sreq	r9
80003e96:	e4 08 18 00 	cp.b	r8,r2
80003e9a:	5f 08       	sreq	r8
80003e9c:	12 48       	or	r8,r9
80003e9e:	ea 08 18 00 	cp.b	r8,r5
80003ea2:	ca 90       	breq	80003df4 <nav_filelist_set+0x38>
80003ea4:	58 04       	cp.w	r4,0
80003ea6:	c0 50       	breq	80003eb0 <nav_filelist_set+0xf4>
80003ea8:	ed 65 00 2c 	st.b	r6[44],r5
80003eac:	30 04       	mov	r4,0
80003eae:	ca 3b       	rjmp	80003df4 <nav_filelist_set+0x38>
80003eb0:	ed 39 00 2c 	ld.ub	r9,r6[44]
80003eb4:	30 18       	mov	r8,1
80003eb6:	f0 09 18 00 	cp.b	r9,r8
80003eba:	ca f0       	breq	80003e18 <nav_filelist_set+0x5c>
80003ebc:	ed 39 00 2d 	ld.ub	r9,r6[45]
80003ec0:	ea 09 18 00 	cp.b	r9,r5
80003ec4:	ca a1       	brne	80003e18 <nav_filelist_set+0x5c>
80003ec6:	ed 68 00 2c 	st.b	r6[44],r8
80003eca:	a6 10       	st.h	r3[0x2],r0
80003ecc:	c9 4b       	rjmp	80003df4 <nav_filelist_set+0x38>
80003ece:	e0 68 29 98 	mov	r8,10648
80003ed2:	40 39       	lddsp	r9,sp[0xc]
80003ed4:	58 09       	cp.w	r9,0
80003ed6:	5f 19       	srne	r9
80003ed8:	40 1a       	lddsp	r10,sp[0x4]
80003eda:	f1 69 00 2c 	st.b	r8[44],r9
80003ede:	f1 5a 00 24 	st.h	r8[36],r10
80003ee2:	40 29       	lddsp	r9,sp[0x8]
80003ee4:	e0 68 29 e0 	mov	r8,10720
80003ee8:	30 0c       	mov	r12,0
80003eea:	b0 19       	st.h	r8[0x2],r9
80003eec:	2f cd       	sub	sp,-16
80003eee:	d8 32       	popm	r0-r7,pc

80003ef0 <nav_filelist_findname>:
80003ef0:	d4 21       	pushm	r4-r7,lr
80003ef2:	18 96       	mov	r6,r12
80003ef4:	16 97       	mov	r7,r11
80003ef6:	30 1b       	mov	r11,1
80003ef8:	30 0c       	mov	r12,0
80003efa:	c6 1f       	rcall	80003dbc <nav_filelist_set>
80003efc:	c0 80       	breq	80003f0c <nav_filelist_findname+0x1c>
80003efe:	30 0a       	mov	r10,0
80003f00:	0e 99       	mov	r9,r7
80003f02:	14 9b       	mov	r11,r10
80003f04:	0c 9c       	mov	r12,r6
80003f06:	cf be       	rcall	80003cfc <nav_file_name>
80003f08:	cf 70       	breq	80003ef6 <nav_filelist_findname+0x6>
80003f0a:	30 1c       	mov	r12,1
80003f0c:	d8 22       	popm	r4-r7,pc
80003f0e:	d7 03       	nop

80003f10 <nav_filelist_reset>:
80003f10:	d4 01       	pushm	lr
80003f12:	fe b0 fc 37 	rcall	80003780 <fat_check_mount_noopen>
80003f16:	c0 40       	breq	80003f1e <nav_filelist_reset+0xe>
80003f18:	fe b0 f6 96 	rcall	80002c44 <fat_clear_entry_info_and_ptr>
80003f1c:	30 1c       	mov	r12,1
80003f1e:	d8 02       	popm	pc

80003f20 <nav_dir_gotoparent>:
80003f20:	d4 21       	pushm	r4-r7,lr
80003f22:	fe b0 fc 2f 	rcall	80003780 <fat_check_mount_noopen>
80003f26:	c3 30       	breq	80003f8c <nav_dir_gotoparent+0x6c>
80003f28:	e0 67 29 98 	mov	r7,10648
80003f2c:	6e 8c       	ld.w	r12,r7[0x20]
80003f2e:	58 0c       	cp.w	r12,0
80003f30:	c0 31       	brne	80003f36 <nav_dir_gotoparent+0x16>
80003f32:	31 99       	mov	r9,25
80003f34:	c2 88       	rjmp	80003f84 <nav_dir_gotoparent+0x64>
80003f36:	30 19       	mov	r9,1
80003f38:	e0 68 29 e0 	mov	r8,10720
80003f3c:	b0 19       	st.h	r8[0x2],r9
80003f3e:	fe b0 fa cf 	rcall	800034dc <fat_read_dir>
80003f42:	c2 50       	breq	80003f8c <nav_dir_gotoparent+0x6c>
80003f44:	fe b0 f6 4c 	rcall	80002bdc <fat_get_entry_info>
80003f48:	e0 68 27 5c 	mov	r8,10076
80003f4c:	70 18       	ld.w	r8,r8[0x4]
80003f4e:	6e 86       	ld.w	r6,r7[0x20]
80003f50:	8f 88       	st.w	r7[0x20],r8
80003f52:	cd ff       	rcall	80003f10 <nav_filelist_reset>
80003f54:	c1 c0       	breq	80003f8c <nav_dir_gotoparent+0x6c>
80003f56:	ef 39 00 2d 	ld.ub	r9,r7[45]
80003f5a:	30 08       	mov	r8,0
80003f5c:	f0 09 18 00 	cp.b	r9,r8
80003f60:	c0 b0       	breq	80003f76 <nav_dir_gotoparent+0x56>
80003f62:	ef 39 00 2c 	ld.ub	r9,r7[44]
80003f66:	f0 09 18 00 	cp.b	r9,r8
80003f6a:	c0 60       	breq	80003f76 <nav_dir_gotoparent+0x56>
80003f6c:	c1 18       	rjmp	80003f8e <nav_dir_gotoparent+0x6e>
80003f6e:	6e 18       	ld.w	r8,r7[0x4]
80003f70:	0c 38       	cp.w	r8,r6
80003f72:	c0 41       	brne	80003f7a <nav_dir_gotoparent+0x5a>
80003f74:	c0 d8       	rjmp	80003f8e <nav_dir_gotoparent+0x6e>
80003f76:	e0 67 27 5c 	mov	r7,10076
80003f7a:	30 1b       	mov	r11,1
80003f7c:	30 0c       	mov	r12,0
80003f7e:	c1 ff       	rcall	80003dbc <nav_filelist_set>
80003f80:	cf 71       	brne	80003f6e <nav_dir_gotoparent+0x4e>
80003f82:	30 89       	mov	r9,8
80003f84:	e0 68 29 e4 	mov	r8,10724
80003f88:	b0 89       	st.b	r8[0x0],r9
80003f8a:	d8 22       	popm	r4-r7,pc
80003f8c:	d8 2a       	popm	r4-r7,pc,r12=0
80003f8e:	da 2a       	popm	r4-r7,pc,r12=1

80003f90 <nav_dir_cd>:
80003f90:	d4 01       	pushm	lr
80003f92:	fe b0 fb e5 	rcall	8000375c <fat_check_mount_select_noopen>
80003f96:	c1 10       	breq	80003fb8 <nav_dir_cd+0x28>
80003f98:	fe b0 f6 4c 	rcall	80002c30 <fat_entry_is_dir>
80003f9c:	c0 e0       	breq	80003fb8 <nav_dir_cd+0x28>
80003f9e:	e0 69 29 e0 	mov	r9,10720
80003fa2:	92 19       	ld.sh	r9,r9[0x2]
80003fa4:	e0 68 29 98 	mov	r8,10648
80003fa8:	f1 59 00 1c 	st.h	r8[28],r9
80003fac:	e0 69 27 5c 	mov	r9,10076
80003fb0:	72 19       	ld.w	r9,r9[0x4]
80003fb2:	91 89       	st.w	r8[0x20],r9
80003fb4:	ca ef       	rcall	80003f10 <nav_filelist_reset>
80003fb6:	d8 02       	popm	pc
80003fb8:	d8 0a       	popm	pc,r12=0
80003fba:	d7 03       	nop

80003fbc <nav_partition_mount>:
80003fbc:	d4 01       	pushm	lr
80003fbe:	fe b0 fb 73 	rcall	800036a4 <fat_check_noopen>
80003fc2:	c1 10       	breq	80003fe4 <nav_partition_mount+0x28>
80003fc4:	e0 68 29 e0 	mov	r8,10720
80003fc8:	11 89       	ld.ub	r9,r8[0x0]
80003fca:	30 08       	mov	r8,0
80003fcc:	f0 09 18 00 	cp.b	r9,r8
80003fd0:	c0 80       	breq	80003fe0 <nav_partition_mount+0x24>
80003fd2:	30 09       	mov	r9,0
80003fd4:	e0 68 29 98 	mov	r8,10648
80003fd8:	91 89       	st.w	r8[0x20],r9
80003fda:	fe b0 f6 35 	rcall	80002c44 <fat_clear_entry_info_and_ptr>
80003fde:	da 0a       	popm	pc,r12=1
80003fe0:	fe b0 fb d6 	rcall	8000378c <fat_mount>
80003fe4:	d8 02       	popm	pc
80003fe6:	d7 03       	nop

80003fe8 <nav_drive_set>:
80003fe8:	d4 21       	pushm	r4-r7,lr
80003fea:	18 97       	mov	r7,r12
80003fec:	fe b0 fb 5c 	rcall	800036a4 <fat_check_noopen>
80003ff0:	c1 90       	breq	80004022 <nav_drive_set+0x3a>
80003ff2:	e0 a0 0d 8d 	rcall	80005b0c <get_nb_lun>
80003ff6:	f8 07 18 00 	cp.b	r7,r12
80003ffa:	c0 73       	brcs	80004008 <nav_drive_set+0x20>
80003ffc:	30 69       	mov	r9,6
80003ffe:	e0 68 29 e4 	mov	r8,10724
80004002:	30 0c       	mov	r12,0
80004004:	b0 89       	st.b	r8[0x0],r9
80004006:	d8 22       	popm	r4-r7,pc
80004008:	e0 68 29 98 	mov	r8,10648
8000400c:	11 89       	ld.ub	r9,r8[0x0]
8000400e:	ee 09 18 00 	cp.b	r9,r7
80004012:	c0 21       	brne	80004016 <nav_drive_set+0x2e>
80004014:	da 2a       	popm	r4-r7,pc,r12=1
80004016:	b0 87       	st.b	r8[0x0],r7
80004018:	30 09       	mov	r9,0
8000401a:	e0 68 29 e0 	mov	r8,10720
8000401e:	30 1c       	mov	r12,1
80004020:	b0 89       	st.b	r8[0x0],r9
80004022:	d8 22       	popm	r4-r7,pc

80004024 <nav_gotoindex>:
80004024:	d4 21       	pushm	r4-r7,lr
80004026:	18 97       	mov	r7,r12
80004028:	19 8c       	ld.ub	r12,r12[0x0]
8000402a:	cd ff       	rcall	80003fe8 <nav_drive_set>
8000402c:	c1 a0       	breq	80004060 <nav_gotoindex+0x3c>
8000402e:	cc 7f       	rcall	80003fbc <nav_partition_mount>
80004030:	c1 80       	breq	80004060 <nav_gotoindex+0x3c>
80004032:	6e 19       	ld.w	r9,r7[0x4]
80004034:	e0 68 29 98 	mov	r8,10648
80004038:	91 89       	st.w	r8[0x20],r9
8000403a:	c6 bf       	rcall	80003f10 <nav_filelist_reset>
8000403c:	c0 a1       	brne	80004050 <nav_gotoindex+0x2c>
8000403e:	c1 18       	rjmp	80004060 <nav_gotoindex+0x3c>
80004040:	30 1b       	mov	r11,1
80004042:	30 0c       	mov	r12,0
80004044:	cb ce       	rcall	80003dbc <nav_filelist_set>
80004046:	18 95       	mov	r5,r12
80004048:	c0 61       	brne	80004054 <nav_gotoindex+0x30>
8000404a:	c6 3f       	rcall	80003f10 <nav_filelist_reset>
8000404c:	0a 9c       	mov	r12,r5
8000404e:	d8 22       	popm	r4-r7,pc
80004050:	e0 66 29 e0 	mov	r6,10720
80004054:	8c 19       	ld.sh	r9,r6[0x2]
80004056:	8e 48       	ld.sh	r8,r7[0x8]
80004058:	f0 09 19 00 	cp.h	r9,r8
8000405c:	cf 21       	brne	80004040 <nav_gotoindex+0x1c>
8000405e:	da 2a       	popm	r4-r7,pc,r12=1
80004060:	d8 2a       	popm	r4-r7,pc,r12=0
80004062:	d7 03       	nop

80004064 <nav_setcwd>:
80004064:	d4 31       	pushm	r0-r7,lr
80004066:	20 9d       	sub	sp,36
80004068:	18 97       	mov	r7,r12
8000406a:	16 96       	mov	r6,r11
8000406c:	14 92       	mov	r2,r10
8000406e:	fe b0 fb 1b 	rcall	800036a4 <fat_check_noopen>
80004072:	e0 80 00 b8 	breq	800041e2 <nav_setcwd+0x17e>
80004076:	e0 6b 29 98 	mov	r11,10648
8000407a:	76 88       	ld.w	r8,r11[0x20]
8000407c:	17 8b       	ld.ub	r11,r11[0x0]
8000407e:	50 48       	stdsp	sp[0x10],r8
80004080:	fb 6b 00 0c 	st.b	sp[12],r11
80004084:	e0 6b 29 e0 	mov	r11,10720
80004088:	96 1b       	ld.sh	r11,r11[0x2]
8000408a:	fb 5b 00 14 	st.h	sp[20],r11
8000408e:	fa c9 ff e8 	sub	r9,sp,-24
80004092:	fa ca ff f4 	sub	r10,sp,-12
80004096:	74 2b       	ld.w	r11,r10[0x8]
80004098:	93 2b       	st.w	r9[0x8],r11
8000409a:	50 2b       	stdsp	sp[0x8],r11
8000409c:	f4 ea 00 00 	ld.d	r10,r10[0]
800040a0:	f2 eb 00 00 	st.d	r9[0],r10
800040a4:	fa eb 00 00 	st.d	sp[0],r10
800040a8:	35 c5       	mov	r5,92
800040aa:	0f 88       	ld.ub	r8,r7[0x0]
800040ac:	ea 08 18 00 	cp.b	r8,r5
800040b0:	5f 09       	sreq	r9
800040b2:	32 fb       	mov	r11,47
800040b4:	f6 08 18 00 	cp.b	r8,r11
800040b8:	5f 0a       	sreq	r10
800040ba:	12 4a       	or	r10,r9
800040bc:	30 09       	mov	r9,0
800040be:	f2 0a 18 00 	cp.b	r10,r9
800040c2:	c0 60       	breq	800040ce <nav_setcwd+0x6a>
800040c4:	c7 cf       	rcall	80003fbc <nav_partition_mount>
800040c6:	e0 80 00 8a 	breq	800041da <nav_setcwd+0x176>
800040ca:	2f f7       	sub	r7,-1
800040cc:	c5 98       	rjmp	8000417e <nav_setcwd+0x11a>
800040ce:	0f 99       	ld.ub	r9,r7[0x1]
800040d0:	33 ac       	mov	r12,58
800040d2:	f8 09 18 00 	cp.b	r9,r12
800040d6:	c1 e1       	brne	80004112 <nav_setcwd+0xae>
800040d8:	0f ac       	ld.ub	r12,r7[0x2]
800040da:	ea 0c 18 00 	cp.b	r12,r5
800040de:	5f 05       	sreq	r5
800040e0:	f6 0c 18 00 	cp.b	r12,r11
800040e4:	5f 0b       	sreq	r11
800040e6:	0a 4b       	or	r11,r5
800040e8:	f4 0b 18 00 	cp.b	r11,r10
800040ec:	c1 30       	breq	80004112 <nav_setcwd+0xae>
800040ee:	e0 69 01 6c 	mov	r9,364
800040f2:	72 09       	ld.w	r9,r9[0x0]
800040f4:	f2 08 07 09 	ld.ub	r9,r9[r8]
800040f8:	ed b9 00 01 	bld	r9,0x1
800040fc:	c0 21       	brne	80004100 <nav_setcwd+0x9c>
800040fe:	22 08       	sub	r8,32
80004100:	24 18       	sub	r8,65
80004102:	f9 d8 c0 08 	bfextu	r12,r8,0x0,0x8
80004106:	c7 1f       	rcall	80003fe8 <nav_drive_set>
80004108:	c6 90       	breq	800041da <nav_setcwd+0x176>
8000410a:	c5 9f       	rcall	80003fbc <nav_partition_mount>
8000410c:	c6 70       	breq	800041da <nav_setcwd+0x176>
8000410e:	2f d7       	sub	r7,-3
80004110:	c3 78       	rjmp	8000417e <nav_setcwd+0x11a>
80004112:	32 ea       	mov	r10,46
80004114:	f4 08 18 00 	cp.b	r8,r10
80004118:	c1 71       	brne	80004146 <nav_setcwd+0xe2>
8000411a:	32 f8       	mov	r8,47
8000411c:	f0 09 18 00 	cp.b	r9,r8
80004120:	5f 0a       	sreq	r10
80004122:	35 c8       	mov	r8,92
80004124:	f0 09 18 00 	cp.b	r9,r8
80004128:	5f 08       	sreq	r8
8000412a:	f5 e8 10 08 	or	r8,r10,r8
8000412e:	c0 c0       	breq	80004146 <nav_setcwd+0xe2>
80004130:	2f e7       	sub	r7,-2
80004132:	c2 68       	rjmp	8000417e <nav_setcwd+0x11a>
80004134:	cf 6e       	rcall	80003f20 <nav_dir_gotoparent>
80004136:	c5 20       	breq	800041da <nav_setcwd+0x176>
80004138:	0b 88       	ld.ub	r8,r5[0x0]
8000413a:	e8 08 18 00 	cp.b	r8,r4
8000413e:	c0 20       	breq	80004142 <nav_setcwd+0xde>
80004140:	2f f5       	sub	r5,-1
80004142:	0a 97       	mov	r7,r5
80004144:	c0 58       	rjmp	8000414e <nav_setcwd+0xea>
80004146:	32 e3       	mov	r3,46
80004148:	32 f0       	mov	r0,47
8000414a:	35 c1       	mov	r1,92
8000414c:	30 04       	mov	r4,0
8000414e:	0f 88       	ld.ub	r8,r7[0x0]
80004150:	e6 08 18 00 	cp.b	r8,r3
80004154:	c1 51       	brne	8000417e <nav_setcwd+0x11a>
80004156:	0f 98       	ld.ub	r8,r7[0x1]
80004158:	e6 08 18 00 	cp.b	r8,r3
8000415c:	c1 11       	brne	8000417e <nav_setcwd+0x11a>
8000415e:	ee c5 ff fe 	sub	r5,r7,-2
80004162:	0b 88       	ld.ub	r8,r5[0x0]
80004164:	e0 08 18 00 	cp.b	r8,r0
80004168:	5f 0a       	sreq	r10
8000416a:	e2 08 18 00 	cp.b	r8,r1
8000416e:	5f 09       	sreq	r9
80004170:	f5 e9 10 09 	or	r9,r10,r9
80004174:	e8 09 18 00 	cp.b	r9,r4
80004178:	cd e1       	brne	80004134 <nav_setcwd+0xd0>
8000417a:	58 08       	cp.w	r8,0
8000417c:	cd c0       	breq	80004134 <nav_setcwd+0xd0>
8000417e:	cc 9e       	rcall	80003f10 <nav_filelist_reset>
80004180:	c2 d0       	breq	800041da <nav_setcwd+0x176>
80004182:	30 05       	mov	r5,0
80004184:	32 f3       	mov	r3,47
80004186:	35 c4       	mov	r4,92
80004188:	0f 88       	ld.ub	r8,r7[0x0]
8000418a:	ea 08 18 00 	cp.b	r8,r5
8000418e:	c0 31       	brne	80004194 <nav_setcwd+0x130>
80004190:	30 1c       	mov	r12,1
80004192:	c2 88       	rjmp	800041e2 <nav_setcwd+0x17e>
80004194:	0c 9b       	mov	r11,r6
80004196:	0e 9c       	mov	r12,r7
80004198:	ca ce       	rcall	80003ef0 <nav_filelist_findname>
8000419a:	c0 30       	breq	800041a0 <nav_setcwd+0x13c>
8000419c:	30 08       	mov	r8,0
8000419e:	c0 48       	rjmp	800041a6 <nav_setcwd+0x142>
800041a0:	58 02       	cp.w	r2,0
800041a2:	c1 c0       	breq	800041da <nav_setcwd+0x176>
800041a4:	30 18       	mov	r8,1
800041a6:	2f f7       	sub	r7,-1
800041a8:	0f 89       	ld.ub	r9,r7[0x0]
800041aa:	58 09       	cp.w	r9,0
800041ac:	c0 41       	brne	800041b4 <nav_setcwd+0x150>
800041ae:	58 08       	cp.w	r8,0
800041b0:	ce c0       	breq	80004188 <nav_setcwd+0x124>
800041b2:	c1 48       	rjmp	800041da <nav_setcwd+0x176>
800041b4:	e8 09 18 00 	cp.b	r9,r4
800041b8:	5f 0a       	sreq	r10
800041ba:	e6 09 18 00 	cp.b	r9,r3
800041be:	5f 09       	sreq	r9
800041c0:	14 49       	or	r9,r10
800041c2:	ea 09 18 00 	cp.b	r9,r5
800041c6:	cf 00       	breq	800041a6 <nav_setcwd+0x142>
800041c8:	58 08       	cp.w	r8,0
800041ca:	c0 81       	brne	800041da <nav_setcwd+0x176>
800041cc:	fe b0 f5 32 	rcall	80002c30 <fat_entry_is_dir>
800041d0:	c0 50       	breq	800041da <nav_setcwd+0x176>
800041d2:	cd fe       	rcall	80003f90 <nav_dir_cd>
800041d4:	c0 30       	breq	800041da <nav_setcwd+0x176>
800041d6:	2f f7       	sub	r7,-1
800041d8:	cd 8b       	rjmp	80004188 <nav_setcwd+0x124>
800041da:	fa cc ff e8 	sub	r12,sp,-24
800041de:	c2 3f       	rcall	80004024 <nav_gotoindex>
800041e0:	30 0c       	mov	r12,0
800041e2:	2f 7d       	sub	sp,-36
800041e4:	d8 32       	popm	r0-r7,pc
800041e6:	d7 03       	nop

800041e8 <nav_select>:
800041e8:	d4 21       	pushm	r4-r7,lr
800041ea:	30 18       	mov	r8,1
800041ec:	18 97       	mov	r7,r12
800041ee:	f0 0c 18 00 	cp.b	r12,r8
800041f2:	e0 88 00 08 	brls	80004202 <nav_select+0x1a>
800041f6:	32 79       	mov	r9,39
800041f8:	e0 68 29 e4 	mov	r8,10724
800041fc:	30 0c       	mov	r12,0
800041fe:	b0 89       	st.b	r8[0x0],r9
80004200:	d8 22       	popm	r4-r7,pc
80004202:	e0 66 2a 44 	mov	r6,10820
80004206:	0d 8c       	ld.ub	r12,r6[0x0]
80004208:	ee 0c 18 00 	cp.b	r12,r7
8000420c:	c0 21       	brne	80004210 <nav_select+0x28>
8000420e:	da 2a       	popm	r4-r7,pc,r12=1
80004210:	fe b0 f6 c0 	rcall	80002f90 <fat_invert_nav>
80004214:	0e 9c       	mov	r12,r7
80004216:	fe b0 f6 bd 	rcall	80002f90 <fat_invert_nav>
8000421a:	30 1c       	mov	r12,1
8000421c:	ac 87       	st.b	r6[0x0],r7
8000421e:	d8 22       	popm	r4-r7,pc

80004220 <nav_reset>:
80004220:	d4 31       	pushm	r0-r7,lr
80004222:	e0 68 29 e5 	mov	r8,10725
80004226:	30 07       	mov	r7,0
80004228:	b0 87       	st.b	r8[0x0],r7
8000422a:	e0 68 27 6e 	mov	r8,10094
8000422e:	b0 87       	st.b	r8[0x0],r7
80004230:	fe b0 f6 72 	rcall	80002f14 <fat_cache_reset>
80004234:	fe b0 f3 a4 	rcall	8000297c <fat_cache_clusterlist_reset>
80004238:	30 0c       	mov	r12,0
8000423a:	cd 7f       	rcall	800041e8 <nav_select>
8000423c:	e0 66 29 98 	mov	r6,10648
80004240:	e0 63 29 e0 	mov	r3,10720
80004244:	3f f4       	mov	r4,-1
80004246:	e0 65 27 5c 	mov	r5,10076
8000424a:	ed 67 00 2d 	st.b	r6[45],r7
8000424e:	a6 87       	st.b	r3[0x0],r7
80004250:	ac 84       	st.b	r6[0x0],r4
80004252:	aa 87       	st.b	r5[0x0],r7
80004254:	30 1c       	mov	r12,1
80004256:	cc 9f       	rcall	800041e8 <nav_select>
80004258:	e0 68 2a 44 	mov	r8,10820
8000425c:	a6 87       	st.b	r3[0x0],r7
8000425e:	ac 84       	st.b	r6[0x0],r4
80004260:	aa 87       	st.b	r5[0x0],r7
80004262:	ed 67 00 2d 	st.b	r6[45],r7
80004266:	b0 87       	st.b	r8[0x0],r7
80004268:	d8 32       	popm	r0-r7,pc
8000426a:	d7 03       	nop

8000426c <sd_mmc_spi_wr_protect>:
8000426c:	5e fd       	retal	0

8000426e <sd_mmc_spi_removal>:
8000426e:	5e fd       	retal	0

80004270 <sd_mmc_spi_write_multiple_sector_callback>:
80004270:	d4 01       	pushm	lr
80004272:	30 09       	mov	r9,0
80004274:	18 9b       	mov	r11,r12
80004276:	e0 6a 02 00 	mov	r10,512
8000427a:	12 9c       	mov	r12,r9
8000427c:	e0 a0 0e 88 	rcall	80005f8c <udi_msc_trans_block>
80004280:	d8 02       	popm	pc
80004282:	d7 03       	nop

80004284 <sd_mmc_spi_read_multiple_sector_callback>:
80004284:	d4 01       	pushm	lr
80004286:	30 09       	mov	r9,0
80004288:	18 9b       	mov	r11,r12
8000428a:	e0 6a 02 00 	mov	r10,512
8000428e:	30 1c       	mov	r12,1
80004290:	e0 a0 0e 7e 	rcall	80005f8c <udi_msc_trans_block>
80004294:	d8 02       	popm	pc
80004296:	d7 03       	nop

80004298 <sd_mmc_spi_test_unit_ready>:
80004298:	d4 21       	pushm	r4-r7,lr
8000429a:	30 87       	mov	r7,8
8000429c:	30 16       	mov	r6,1
8000429e:	0f 88       	ld.ub	r8,r7[0x0]
800042a0:	ec 08 18 00 	cp.b	r8,r6
800042a4:	c1 00       	breq	800042c4 <sd_mmc_spi_test_unit_ready+0x2c>
800042a6:	c0 63       	brcs	800042b2 <sd_mmc_spi_test_unit_ready+0x1a>
800042a8:	30 29       	mov	r9,2
800042aa:	f2 08 18 00 	cp.b	r8,r9
800042ae:	c1 a1       	brne	800042e2 <sd_mmc_spi_test_unit_ready+0x4a>
800042b0:	c1 58       	rjmp	800042da <sd_mmc_spi_test_unit_ready+0x42>
800042b2:	30 09       	mov	r9,0
800042b4:	e0 68 03 88 	mov	r8,904
800042b8:	b0 89       	st.b	r8[0x0],r9
800042ba:	fe b0 f3 05 	rcall	800028c4 <sd_mmc_spi_mem_check>
800042be:	c1 00       	breq	800042de <sd_mmc_spi_test_unit_ready+0x46>
800042c0:	ae 86       	st.b	r7[0x0],r6
800042c2:	c0 a8       	rjmp	800042d6 <sd_mmc_spi_test_unit_ready+0x3e>
800042c4:	fe b0 f3 00 	rcall	800028c4 <sd_mmc_spi_mem_check>
800042c8:	c0 20       	breq	800042cc <sd_mmc_spi_test_unit_ready+0x34>
800042ca:	d8 2a       	popm	r4-r7,pc,r12=0
800042cc:	30 28       	mov	r8,2
800042ce:	ae 88       	st.b	r7[0x0],r8
800042d0:	e0 68 03 88 	mov	r8,904
800042d4:	b0 8c       	st.b	r8[0x0],r12
800042d6:	30 3c       	mov	r12,3
800042d8:	d8 22       	popm	r4-r7,pc
800042da:	30 08       	mov	r8,0
800042dc:	ae 88       	st.b	r7[0x0],r8
800042de:	30 2c       	mov	r12,2
800042e0:	d8 22       	popm	r4-r7,pc
800042e2:	30 08       	mov	r8,0
800042e4:	30 3c       	mov	r12,3
800042e6:	ae 88       	st.b	r7[0x0],r8
800042e8:	d8 22       	popm	r4-r7,pc
800042ea:	d7 03       	nop

800042ec <sd_mmc_spi_ram_2_mem>:
800042ec:	d4 21       	pushm	r4-r7,lr
800042ee:	18 97       	mov	r7,r12
800042f0:	16 96       	mov	r6,r11
800042f2:	fe b0 ef c5 	rcall	8000227c <sd_mmc_spi_check_presence>
800042f6:	e0 68 03 88 	mov	r8,904
800042fa:	11 89       	ld.ub	r9,r8[0x0]
800042fc:	30 08       	mov	r8,0
800042fe:	f0 09 18 00 	cp.b	r9,r8
80004302:	c0 31       	brne	80004308 <sd_mmc_spi_ram_2_mem+0x1c>
80004304:	fe b0 f1 da 	rcall	800026b8 <sd_mmc_spi_internal_init>
80004308:	e0 68 03 88 	mov	r8,904
8000430c:	11 89       	ld.ub	r9,r8[0x0]
8000430e:	30 08       	mov	r8,0
80004310:	f0 09 18 00 	cp.b	r9,r8
80004314:	c0 a0       	breq	80004328 <sd_mmc_spi_ram_2_mem+0x3c>
80004316:	0e 9c       	mov	r12,r7
80004318:	fe b0 ef 36 	rcall	80002184 <sd_mmc_spi_write_open>
8000431c:	0c 9c       	mov	r12,r6
8000431e:	fe b0 ef db 	rcall	800022d4 <sd_mmc_spi_write_sector_from_ram>
80004322:	c0 51       	brne	8000432c <sd_mmc_spi_ram_2_mem+0x40>
80004324:	fe b0 ee f6 	rcall	80002110 <sd_mmc_spi_write_close>
80004328:	30 2c       	mov	r12,2
8000432a:	d8 22       	popm	r4-r7,pc
8000432c:	fe b0 ee f2 	rcall	80002110 <sd_mmc_spi_write_close>
80004330:	d8 2a       	popm	r4-r7,pc,r12=0
80004332:	d7 03       	nop

80004334 <sd_mmc_spi_mem_2_ram>:
80004334:	d4 21       	pushm	r4-r7,lr
80004336:	18 97       	mov	r7,r12
80004338:	16 96       	mov	r6,r11
8000433a:	fe b0 ef a1 	rcall	8000227c <sd_mmc_spi_check_presence>
8000433e:	e0 68 03 88 	mov	r8,904
80004342:	11 89       	ld.ub	r9,r8[0x0]
80004344:	30 08       	mov	r8,0
80004346:	f0 09 18 00 	cp.b	r9,r8
8000434a:	c0 31       	brne	80004350 <sd_mmc_spi_mem_2_ram+0x1c>
8000434c:	fe b0 f1 b6 	rcall	800026b8 <sd_mmc_spi_internal_init>
80004350:	e0 68 03 88 	mov	r8,904
80004354:	11 89       	ld.ub	r9,r8[0x0]
80004356:	30 08       	mov	r8,0
80004358:	f0 09 18 00 	cp.b	r9,r8
8000435c:	c0 31       	brne	80004362 <sd_mmc_spi_mem_2_ram+0x2e>
8000435e:	30 2c       	mov	r12,2
80004360:	d8 22       	popm	r4-r7,pc
80004362:	0e 9c       	mov	r12,r7
80004364:	fe b0 ef 1c 	rcall	8000219c <sd_mmc_spi_read_open>
80004368:	c0 b0       	breq	8000437e <sd_mmc_spi_mem_2_ram+0x4a>
8000436a:	0c 9c       	mov	r12,r6
8000436c:	fe b0 f0 a0 	rcall	800024ac <sd_mmc_spi_read_sector_to_ram>
80004370:	c0 70       	breq	8000437e <sd_mmc_spi_mem_2_ram+0x4a>
80004372:	fe b0 ef 11 	rcall	80002194 <sd_mmc_spi_read_close>
80004376:	ec 1c 00 01 	eorl	r12,0x1
8000437a:	5c 5c       	castu.b	r12
8000437c:	d8 22       	popm	r4-r7,pc
8000437e:	da 2a       	popm	r4-r7,pc,r12=1

80004380 <sd_mmc_spi_usb_write_10>:
80004380:	d4 21       	pushm	r4-r7,lr
80004382:	e0 68 03 88 	mov	r8,904
80004386:	18 97       	mov	r7,r12
80004388:	11 89       	ld.ub	r9,r8[0x0]
8000438a:	16 96       	mov	r6,r11
8000438c:	30 08       	mov	r8,0
8000438e:	f0 09 18 00 	cp.b	r9,r8
80004392:	c0 31       	brne	80004398 <sd_mmc_spi_usb_write_10+0x18>
80004394:	fe b0 f1 92 	rcall	800026b8 <sd_mmc_spi_internal_init>
80004398:	e0 68 03 88 	mov	r8,904
8000439c:	11 89       	ld.ub	r9,r8[0x0]
8000439e:	30 08       	mov	r8,0
800043a0:	f0 09 18 00 	cp.b	r9,r8
800043a4:	c0 e0       	breq	800043c0 <sd_mmc_spi_usb_write_10+0x40>
800043a6:	0e 9c       	mov	r12,r7
800043a8:	fe b0 ee ee 	rcall	80002184 <sd_mmc_spi_write_open>
800043ac:	f9 d6 c0 10 	bfextu	r12,r6,0x0,0x10
800043b0:	fe b0 f1 64 	rcall	80002678 <sd_mmc_spi_write_multiple_sector>
800043b4:	18 97       	mov	r7,r12
800043b6:	fe b0 ee ad 	rcall	80002110 <sd_mmc_spi_write_close>
800043ba:	58 07       	cp.w	r7,0
800043bc:	c0 20       	breq	800043c0 <sd_mmc_spi_usb_write_10+0x40>
800043be:	d8 2a       	popm	r4-r7,pc,r12=0
800043c0:	30 2c       	mov	r12,2
800043c2:	d8 22       	popm	r4-r7,pc

800043c4 <sd_mmc_spi_usb_read_10>:
800043c4:	d4 21       	pushm	r4-r7,lr
800043c6:	e0 68 03 88 	mov	r8,904
800043ca:	18 97       	mov	r7,r12
800043cc:	11 89       	ld.ub	r9,r8[0x0]
800043ce:	16 96       	mov	r6,r11
800043d0:	30 08       	mov	r8,0
800043d2:	f0 09 18 00 	cp.b	r9,r8
800043d6:	c0 31       	brne	800043dc <sd_mmc_spi_usb_read_10+0x18>
800043d8:	fe b0 f1 70 	rcall	800026b8 <sd_mmc_spi_internal_init>
800043dc:	e0 68 03 88 	mov	r8,904
800043e0:	11 89       	ld.ub	r9,r8[0x0]
800043e2:	30 08       	mov	r8,0
800043e4:	f0 09 18 00 	cp.b	r9,r8
800043e8:	c0 31       	brne	800043ee <sd_mmc_spi_usb_read_10+0x2a>
800043ea:	30 2c       	mov	r12,2
800043ec:	d8 22       	popm	r4-r7,pc
800043ee:	0e 9c       	mov	r12,r7
800043f0:	fe b0 ee d6 	rcall	8000219c <sd_mmc_spi_read_open>
800043f4:	c0 c0       	breq	8000440c <sd_mmc_spi_usb_read_10+0x48>
800043f6:	f9 d6 c0 10 	bfextu	r12,r6,0x0,0x10
800043fa:	fe b0 f1 4f 	rcall	80002698 <sd_mmc_spi_read_multiple_sector>
800043fe:	c0 70       	breq	8000440c <sd_mmc_spi_usb_read_10+0x48>
80004400:	fe b0 ee ca 	rcall	80002194 <sd_mmc_spi_read_close>
80004404:	ec 1c 00 01 	eorl	r12,0x1
80004408:	5c 5c       	castu.b	r12
8000440a:	d8 22       	popm	r4-r7,pc
8000440c:	da 2a       	popm	r4-r7,pc,r12=1
8000440e:	d7 03       	nop

80004410 <sd_mmc_spi_read_capacity>:
80004410:	d4 21       	pushm	r4-r7,lr
80004412:	e0 68 03 88 	mov	r8,904
80004416:	18 97       	mov	r7,r12
80004418:	11 89       	ld.ub	r9,r8[0x0]
8000441a:	30 08       	mov	r8,0
8000441c:	f0 09 18 00 	cp.b	r9,r8
80004420:	c0 31       	brne	80004426 <sd_mmc_spi_read_capacity+0x16>
80004422:	fe b0 f1 4b 	rcall	800026b8 <sd_mmc_spi_internal_init>
80004426:	e0 68 03 88 	mov	r8,904
8000442a:	11 89       	ld.ub	r9,r8[0x0]
8000442c:	30 08       	mov	r8,0
8000442e:	f0 09 18 00 	cp.b	r9,r8
80004432:	c0 31       	brne	80004438 <sd_mmc_spi_read_capacity+0x28>
80004434:	30 2c       	mov	r12,2
80004436:	d8 22       	popm	r4-r7,pc
80004438:	e0 68 27 3c 	mov	r8,10044
8000443c:	30 0c       	mov	r12,0
8000443e:	70 08       	ld.w	r8,r8[0x0]
80004440:	2f f8       	sub	r8,-1
80004442:	8f 08       	st.w	r7[0x0],r8
80004444:	d8 22       	popm	r4-r7,pc
80004446:	d7 03       	nop

80004448 <board_init>:
80004448:	d4 01       	pushm	lr
8000444a:	30 3b       	mov	r11,3
8000444c:	30 7c       	mov	r12,7
8000444e:	c0 9d       	rcall	80004660 <gpio_configure_pin>
80004450:	30 3b       	mov	r11,3
80004452:	30 8c       	mov	r12,8
80004454:	c0 6d       	rcall	80004660 <gpio_configure_pin>
80004456:	30 3b       	mov	r11,3
80004458:	31 5c       	mov	r12,21
8000445a:	c0 3d       	rcall	80004660 <gpio_configure_pin>
8000445c:	30 3b       	mov	r11,3
8000445e:	31 6c       	mov	r12,22
80004460:	c0 0d       	rcall	80004660 <gpio_configure_pin>
80004462:	30 0b       	mov	r11,0
80004464:	32 2c       	mov	r12,34
80004466:	cf dc       	rcall	80004660 <gpio_configure_pin>
80004468:	30 0b       	mov	r11,0
8000446a:	32 3c       	mov	r12,35
8000446c:	cf ac       	rcall	80004660 <gpio_configure_pin>
8000446e:	30 0b       	mov	r11,0
80004470:	30 dc       	mov	r12,13
80004472:	cf 7c       	rcall	80004660 <gpio_configure_pin>
80004474:	30 0b       	mov	r11,0
80004476:	32 6c       	mov	r12,38
80004478:	cf 4c       	rcall	80004660 <gpio_configure_pin>
8000447a:	30 0b       	mov	r11,0
8000447c:	32 7c       	mov	r12,39
8000447e:	cf 1c       	rcall	80004660 <gpio_configure_pin>
80004480:	30 0b       	mov	r11,0
80004482:	32 8c       	mov	r12,40
80004484:	ce ec       	rcall	80004660 <gpio_configure_pin>
80004486:	30 4b       	mov	r11,4
80004488:	fe cc d0 88 	sub	r12,pc,-12152
8000448c:	cd ac       	rcall	80004640 <gpio_enable_module>
8000448e:	30 0b       	mov	r11,0
80004490:	32 0c       	mov	r12,32
80004492:	ce 7c       	rcall	80004660 <gpio_configure_pin>
80004494:	30 0b       	mov	r11,0
80004496:	32 1c       	mov	r12,33
80004498:	ce 4c       	rcall	80004660 <gpio_configure_pin>
8000449a:	d8 02       	popm	pc

8000449c <LED_Set_Intensity>:
8000449c:	d4 31       	pushm	r0-r7,lr
8000449e:	fe c8 d0 7e 	sub	r8,pc,-12162
800044a2:	f9 dc c0 04 	bfextu	r12,r12,0x0,0x4
800044a6:	21 08       	sub	r8,16
800044a8:	fe 7e 30 00 	mov	lr,-53248
800044ac:	30 14       	mov	r4,1
800044ae:	e0 65 00 ff 	mov	r5,255
800044b2:	c3 88       	rjmp	80004522 <LED_Set_Intensity+0x86>
800044b4:	18 97       	mov	r7,r12
800044b6:	5c 97       	brev	r7
800044b8:	ee 07 12 00 	clz	r7,r7
800044bc:	2f f7       	sub	r7,-1
800044be:	ee 09 15 04 	lsl	r9,r7,0x4
800044c2:	12 08       	add	r8,r9
800044c4:	70 29       	ld.w	r9,r8[0x8]
800044c6:	58 09       	cp.w	r9,0
800044c8:	c2 b5       	brlt	8000451e <LED_Set_Intensity+0x82>
800044ca:	7c 36       	ld.w	r6,lr[0xc]
800044cc:	e8 09 09 4a 	lsl	r10,r4,r9
800044d0:	a5 79       	lsl	r9,0x5
800044d2:	f5 e6 00 06 	and	r6,r10,r6
800044d6:	e0 29 ce 00 	sub	r9,52736
800044da:	58 06       	cp.w	r6,0
800044dc:	c0 61       	brne	800044e8 <LED_Set_Intensity+0x4c>
800044de:	93 06       	st.w	r9[0x0],r6
800044e0:	93 25       	st.w	r9[0x8],r5
800044e2:	93 1b       	st.w	r9[0x4],r11
800044e4:	9d 1a       	st.w	lr[0x4],r10
800044e6:	c0 78       	rjmp	800044f4 <LED_Set_Intensity+0x58>
800044e8:	7c 76       	ld.w	r6,lr[0x1c]
800044ea:	7c 76       	ld.w	r6,lr[0x1c]
800044ec:	f5 e6 00 06 	and	r6,r10,r6
800044f0:	cf d0       	breq	800044ea <LED_Set_Intensity+0x4e>
800044f2:	93 4b       	st.w	r9[0x10],r11
800044f4:	70 09       	ld.w	r9,r8[0x0]
800044f6:	70 36       	ld.w	r6,r8[0xc]
800044f8:	a9 69       	lsl	r9,0x8
800044fa:	70 1a       	ld.w	r10,r8[0x4]
800044fc:	e0 29 f0 00 	sub	r9,61440
80004500:	e7 d6 c0 01 	bfextu	r3,r6,0x0,0x1
80004504:	c0 30       	breq	8000450a <LED_Set_Intensity+0x6e>
80004506:	93 5a       	st.w	r9[0x14],r10
80004508:	c0 28       	rjmp	8000450c <LED_Set_Intensity+0x70>
8000450a:	93 6a       	st.w	r9[0x18],r10
8000450c:	e2 16 00 02 	andl	r6,0x2,COH
80004510:	70 1a       	ld.w	r10,r8[0x4]
80004512:	c0 30       	breq	80004518 <LED_Set_Intensity+0x7c>
80004514:	93 9a       	st.w	r9[0x24],r10
80004516:	c0 28       	rjmp	8000451a <LED_Set_Intensity+0x7e>
80004518:	93 aa       	st.w	r9[0x28],r10
8000451a:	70 1a       	ld.w	r10,r8[0x4]
8000451c:	93 2a       	st.w	r9[0x8],r10
8000451e:	f8 07 0a 4c 	lsr	r12,r12,r7
80004522:	58 0c       	cp.w	r12,0
80004524:	cc 81       	brne	800044b4 <LED_Set_Intensity+0x18>
80004526:	d8 32       	popm	r0-r7,pc

80004528 <LED_On>:
80004528:	30 c8       	mov	r8,12
8000452a:	f9 dc c0 04 	bfextu	r12,r12,0x0,0x4
8000452e:	70 0a       	ld.w	r10,r8[0x0]
80004530:	fe c9 d1 10 	sub	r9,pc,-12016
80004534:	f9 ea 10 0a 	or	r10,r12,r10
80004538:	21 09       	sub	r9,16
8000453a:	91 0a       	st.w	r8[0x0],r10
8000453c:	c0 d8       	rjmp	80004556 <LED_On+0x2e>
8000453e:	72 08       	ld.w	r8,r9[0x0]
80004540:	72 1a       	ld.w	r10,r9[0x4]
80004542:	a9 68       	lsl	r8,0x8
80004544:	e0 28 f0 00 	sub	r8,61440
80004548:	f1 4a 00 58 	st.w	r8[88],r10
8000454c:	f1 4a 00 44 	st.w	r8[68],r10
80004550:	91 1a       	st.w	r8[0x4],r10
80004552:	f8 0b 0a 4c 	lsr	r12,r12,r11
80004556:	18 9b       	mov	r11,r12
80004558:	5c 9b       	brev	r11
8000455a:	f6 0b 12 00 	clz	r11,r11
8000455e:	2f fb       	sub	r11,-1
80004560:	f6 08 15 04 	lsl	r8,r11,0x4
80004564:	10 09       	add	r9,r8
80004566:	58 0c       	cp.w	r12,0
80004568:	ce b1       	brne	8000453e <LED_On+0x16>
8000456a:	5e fc       	retal	r12

8000456c <LED_Off>:
8000456c:	30 c8       	mov	r8,12
8000456e:	f9 dc c0 04 	bfextu	r12,r12,0x0,0x4
80004572:	70 09       	ld.w	r9,r8[0x0]
80004574:	f8 0a 11 ff 	rsub	r10,r12,-1
80004578:	f5 e9 00 09 	and	r9,r10,r9
8000457c:	91 09       	st.w	r8[0x0],r9
8000457e:	fe c9 d1 5e 	sub	r9,pc,-11938
80004582:	21 09       	sub	r9,16
80004584:	c0 d8       	rjmp	8000459e <LED_Off+0x32>
80004586:	72 08       	ld.w	r8,r9[0x0]
80004588:	72 1a       	ld.w	r10,r9[0x4]
8000458a:	a9 68       	lsl	r8,0x8
8000458c:	e0 28 f0 00 	sub	r8,61440
80004590:	f1 4a 00 54 	st.w	r8[84],r10
80004594:	f1 4a 00 44 	st.w	r8[68],r10
80004598:	91 1a       	st.w	r8[0x4],r10
8000459a:	f8 0b 0a 4c 	lsr	r12,r12,r11
8000459e:	18 9b       	mov	r11,r12
800045a0:	5c 9b       	brev	r11
800045a2:	f6 0b 12 00 	clz	r11,r11
800045a6:	2f fb       	sub	r11,-1
800045a8:	f6 08 15 04 	lsl	r8,r11,0x4
800045ac:	10 09       	add	r9,r8
800045ae:	58 0c       	cp.w	r12,0
800045b0:	ce b1       	brne	80004586 <LED_Off+0x1a>
800045b2:	5e fc       	retal	r12

800045b4 <eic_clear_interrupt_line>:
800045b4:	e1 b8 00 00 	mfsr	r8,0x0
800045b8:	d3 03       	ssrf	0x10
800045ba:	30 19       	mov	r9,1
800045bc:	f2 0b 09 4b 	lsl	r11,r9,r11
800045c0:	99 4b       	st.w	r12[0x10],r11
800045c2:	78 39       	ld.w	r9,r12[0xc]
800045c4:	e3 b8 00 00 	mtsr	0x0,r8
800045c8:	5e fc       	retal	r12

800045ca <flashc_set_bus_freq>:
800045ca:	e0 68 8a 3f 	mov	r8,35391
800045ce:	ea 18 01 f7 	orh	r8,0x1f7
800045d2:	10 3c       	cp.w	r12,r8
800045d4:	e0 88 00 07 	brls	800045e2 <flashc_set_bus_freq+0x18>
800045d8:	fe 68 14 00 	mov	r8,-125952
800045dc:	30 1a       	mov	r10,1
800045de:	70 09       	ld.w	r9,r8[0x0]
800045e0:	c0 58       	rjmp	800045ea <flashc_set_bus_freq+0x20>
800045e2:	fe 68 14 00 	mov	r8,-125952
800045e6:	30 0a       	mov	r10,0
800045e8:	70 09       	ld.w	r9,r8[0x0]
800045ea:	f3 da d0 c1 	bfins	r9,r10,0x6,0x1
800045ee:	91 09       	st.w	r8[0x0],r9
800045f0:	5e fc       	retal	r12

800045f2 <gpio_enable_module_pin>:
800045f2:	f8 08 16 05 	lsr	r8,r12,0x5
800045f6:	a9 68       	lsl	r8,0x8
800045f8:	e0 28 f0 00 	sub	r8,61440
800045fc:	58 1b       	cp.w	r11,1
800045fe:	c0 d0       	breq	80004618 <gpio_enable_module_pin+0x26>
80004600:	c0 63       	brcs	8000460c <gpio_enable_module_pin+0x1a>
80004602:	58 2b       	cp.w	r11,2
80004604:	c0 f0       	breq	80004622 <gpio_enable_module_pin+0x30>
80004606:	58 3b       	cp.w	r11,3
80004608:	c1 20       	breq	8000462c <gpio_enable_module_pin+0x3a>
8000460a:	5e ff       	retal	1
8000460c:	30 19       	mov	r9,1
8000460e:	f2 0c 09 49 	lsl	r9,r9,r12
80004612:	91 69       	st.w	r8[0x18],r9
80004614:	91 a9       	st.w	r8[0x28],r9
80004616:	c1 08       	rjmp	80004636 <gpio_enable_module_pin+0x44>
80004618:	f6 0c 09 4b 	lsl	r11,r11,r12
8000461c:	91 5b       	st.w	r8[0x14],r11
8000461e:	91 ab       	st.w	r8[0x28],r11
80004620:	c0 b8       	rjmp	80004636 <gpio_enable_module_pin+0x44>
80004622:	30 19       	mov	r9,1
80004624:	f2 0c 09 49 	lsl	r9,r9,r12
80004628:	91 69       	st.w	r8[0x18],r9
8000462a:	c0 58       	rjmp	80004634 <gpio_enable_module_pin+0x42>
8000462c:	30 19       	mov	r9,1
8000462e:	f2 0c 09 49 	lsl	r9,r9,r12
80004632:	91 59       	st.w	r8[0x14],r9
80004634:	91 99       	st.w	r8[0x24],r9
80004636:	30 19       	mov	r9,1
80004638:	f2 0c 09 4c 	lsl	r12,r9,r12
8000463c:	91 2c       	st.w	r8[0x8],r12
8000463e:	5e fd       	retal	0

80004640 <gpio_enable_module>:
80004640:	d4 21       	pushm	r4-r7,lr
80004642:	30 07       	mov	r7,0
80004644:	18 96       	mov	r6,r12
80004646:	16 94       	mov	r4,r11
80004648:	0e 95       	mov	r5,r7
8000464a:	c0 78       	rjmp	80004658 <gpio_enable_module+0x18>
8000464c:	6c 1b       	ld.w	r11,r6[0x4]
8000464e:	6c 0c       	ld.w	r12,r6[0x0]
80004650:	2f f7       	sub	r7,-1
80004652:	2f 86       	sub	r6,-8
80004654:	cc ff       	rcall	800045f2 <gpio_enable_module_pin>
80004656:	18 45       	or	r5,r12
80004658:	08 37       	cp.w	r7,r4
8000465a:	cf 93       	brcs	8000464c <gpio_enable_module+0xc>
8000465c:	0a 9c       	mov	r12,r5
8000465e:	d8 22       	popm	r4-r7,pc

80004660 <gpio_configure_pin>:
80004660:	f8 08 16 05 	lsr	r8,r12,0x5
80004664:	16 9a       	mov	r10,r11
80004666:	a9 68       	lsl	r8,0x8
80004668:	e2 1a 00 04 	andl	r10,0x4,COH
8000466c:	e0 28 f0 00 	sub	r8,61440
80004670:	f3 dc c0 05 	bfextu	r9,r12,0x0,0x5
80004674:	58 0a       	cp.w	r10,0
80004676:	c0 70       	breq	80004684 <gpio_configure_pin+0x24>
80004678:	30 1a       	mov	r10,1
8000467a:	f4 09 09 49 	lsl	r9,r10,r9
8000467e:	f1 49 00 74 	st.w	r8[116],r9
80004682:	c0 68       	rjmp	8000468e <gpio_configure_pin+0x2e>
80004684:	30 1a       	mov	r10,1
80004686:	f4 09 09 49 	lsl	r9,r10,r9
8000468a:	f1 49 00 78 	st.w	r8[120],r9
8000468e:	ed bb 00 07 	bld	r11,0x7
80004692:	c2 21       	brne	800046d6 <gpio_configure_pin+0x76>
80004694:	16 99       	mov	r9,r11
80004696:	e2 19 01 80 	andl	r9,0x180,COH
8000469a:	c0 70       	breq	800046a8 <gpio_configure_pin+0x48>
8000469c:	30 19       	mov	r9,1
8000469e:	f2 0c 09 49 	lsl	r9,r9,r12
800046a2:	f1 49 00 a8 	st.w	r8[168],r9
800046a6:	c0 a8       	rjmp	800046ba <gpio_configure_pin+0x5a>
800046a8:	16 99       	mov	r9,r11
800046aa:	e2 19 02 80 	andl	r9,0x280,COH
800046ae:	c0 90       	breq	800046c0 <gpio_configure_pin+0x60>
800046b0:	30 19       	mov	r9,1
800046b2:	f2 0c 09 49 	lsl	r9,r9,r12
800046b6:	f1 49 00 a4 	st.w	r8[164],r9
800046ba:	f1 49 00 b8 	st.w	r8[184],r9
800046be:	c0 c8       	rjmp	800046d6 <gpio_configure_pin+0x76>
800046c0:	16 99       	mov	r9,r11
800046c2:	e2 19 03 80 	andl	r9,0x380,COH
800046c6:	c0 80       	breq	800046d6 <gpio_configure_pin+0x76>
800046c8:	30 19       	mov	r9,1
800046ca:	f2 0c 09 49 	lsl	r9,r9,r12
800046ce:	f1 49 00 a8 	st.w	r8[168],r9
800046d2:	f1 49 00 b4 	st.w	r8[180],r9
800046d6:	ed bb 00 00 	bld	r11,0x0
800046da:	c1 81       	brne	8000470a <gpio_configure_pin+0xaa>
800046dc:	e2 1b 00 02 	andl	r11,0x2,COH
800046e0:	f3 dc c0 05 	bfextu	r9,r12,0x0,0x5
800046e4:	58 0b       	cp.w	r11,0
800046e6:	c0 70       	breq	800046f4 <gpio_configure_pin+0x94>
800046e8:	30 1a       	mov	r10,1
800046ea:	f4 09 09 49 	lsl	r9,r10,r9
800046ee:	f1 49 00 54 	st.w	r8[84],r9
800046f2:	c0 68       	rjmp	800046fe <gpio_configure_pin+0x9e>
800046f4:	30 1a       	mov	r10,1
800046f6:	f4 09 09 49 	lsl	r9,r10,r9
800046fa:	f1 49 00 58 	st.w	r8[88],r9
800046fe:	30 19       	mov	r9,1
80004700:	f2 0c 09 49 	lsl	r9,r9,r12
80004704:	f1 49 00 44 	st.w	r8[68],r9
80004708:	c0 68       	rjmp	80004714 <gpio_configure_pin+0xb4>
8000470a:	30 19       	mov	r9,1
8000470c:	f2 0c 09 49 	lsl	r9,r9,r12
80004710:	f1 49 00 48 	st.w	r8[72],r9
80004714:	30 19       	mov	r9,1
80004716:	f2 0c 09 4c 	lsl	r12,r9,r12
8000471a:	91 1c       	st.w	r8[0x4],r12
8000471c:	5e fc       	retal	r12

8000471e <gpio_get_pin_value>:
8000471e:	f8 08 16 05 	lsr	r8,r12,0x5
80004722:	a9 68       	lsl	r8,0x8
80004724:	e0 28 f0 00 	sub	r8,61440
80004728:	71 88       	ld.w	r8,r8[0x60]
8000472a:	f0 0c 0a 4c 	lsr	r12,r8,r12
8000472e:	f9 dc c0 01 	bfextu	r12,r12,0x0,0x1
80004732:	5e fc       	retal	r12

80004734 <gpio_clear_pin_interrupt_flag>:
80004734:	30 18       	mov	r8,1
80004736:	f0 0c 09 48 	lsl	r8,r8,r12
8000473a:	a5 9c       	lsr	r12,0x5
8000473c:	a9 6c       	lsl	r12,0x8
8000473e:	e0 2c f0 00 	sub	r12,61440
80004742:	f9 48 00 d8 	st.w	r12[216],r8
80004746:	5e fc       	retal	r12

80004748 <_unhandled_interrupt>:
80004748:	c0 08       	rjmp	80004748 <_unhandled_interrupt>
8000474a:	d7 03       	nop

8000474c <INTC_register_interrupt>:
8000474c:	f3 db c0 05 	bfextu	r9,r11,0x0,0x5
80004750:	fe c8 d2 f0 	sub	r8,pc,-11536
80004754:	a5 9b       	lsr	r11,0x5
80004756:	f0 0b 00 38 	add	r8,r8,r11<<0x3
8000475a:	70 18       	ld.w	r8,r8[0x4]
8000475c:	f0 09 09 2c 	st.w	r8[r9<<0x2],r12
80004760:	58 0a       	cp.w	r10,0
80004762:	c0 c1       	brne	8000477a <INTC_register_interrupt+0x2e>
80004764:	fe 78 08 00 	mov	r8,-63488
80004768:	fe c9 d5 68 	sub	r9,pc,-10904
8000476c:	fe ca d4 68 	sub	r10,pc,-11160
80004770:	f4 09 01 09 	sub	r9,r10,r9
80004774:	f0 0b 09 29 	st.w	r8[r11<<0x2],r9
80004778:	5e fc       	retal	r12
8000477a:	58 1a       	cp.w	r10,1
8000477c:	c0 91       	brne	8000478e <INTC_register_interrupt+0x42>
8000477e:	fe c8 d5 7e 	sub	r8,pc,-10882
80004782:	fe c9 d4 70 	sub	r9,pc,-11152
80004786:	f2 08 01 08 	sub	r8,r9,r8
8000478a:	bf a8       	sbr	r8,0x1e
8000478c:	c1 18       	rjmp	800047ae <INTC_register_interrupt+0x62>
8000478e:	fe c8 d5 8e 	sub	r8,pc,-10866
80004792:	58 2a       	cp.w	r10,2
80004794:	c0 71       	brne	800047a2 <INTC_register_interrupt+0x56>
80004796:	fe c9 d4 76 	sub	r9,pc,-11146
8000479a:	f2 08 01 08 	sub	r8,r9,r8
8000479e:	bf b8       	sbr	r8,0x1f
800047a0:	c0 78       	rjmp	800047ae <INTC_register_interrupt+0x62>
800047a2:	fe c9 d4 74 	sub	r9,pc,-11148
800047a6:	f2 08 01 08 	sub	r8,r9,r8
800047aa:	ea 18 c0 00 	orh	r8,0xc000
800047ae:	fe 79 08 00 	mov	r9,-63488
800047b2:	f2 0b 09 28 	st.w	r9[r11<<0x2],r8
800047b6:	5e fc       	retal	r12

800047b8 <INTC_init_interrupts>:
800047b8:	d4 21       	pushm	r4-r7,lr
800047ba:	fe c8 d5 ba 	sub	r8,pc,-10822
800047be:	e3 b8 00 01 	mtsr	0x4,r8
800047c2:	fe ce d4 be 	sub	lr,pc,-11074
800047c6:	fe c9 d3 66 	sub	r9,pc,-11418
800047ca:	10 1e       	sub	lr,r8
800047cc:	fe cc 00 84 	sub	r12,pc,132
800047d0:	30 08       	mov	r8,0
800047d2:	fe 7b 08 00 	mov	r11,-63488
800047d6:	c0 e8       	rjmp	800047f2 <INTC_init_interrupts+0x3a>
800047d8:	72 16       	ld.w	r6,r9[0x4]
800047da:	ec 0a 00 26 	add	r6,r6,r10<<0x2
800047de:	2f fa       	sub	r10,-1
800047e0:	8d 0c       	st.w	r6[0x0],r12
800047e2:	0e 3a       	cp.w	r10,r7
800047e4:	cf a3       	brcs	800047d8 <INTC_init_interrupts+0x20>
800047e6:	f6 08 09 2e 	st.w	r11[r8<<0x2],lr
800047ea:	2f 89       	sub	r9,-8
800047ec:	2f f8       	sub	r8,-1
800047ee:	59 28       	cp.w	r8,18
800047f0:	c0 40       	breq	800047f8 <INTC_init_interrupts+0x40>
800047f2:	72 07       	ld.w	r7,r9[0x0]
800047f4:	30 0a       	mov	r10,0
800047f6:	cf 6b       	rjmp	800047e2 <INTC_init_interrupts+0x2a>
800047f8:	d8 22       	popm	r4-r7,pc
800047fa:	d7 03       	nop

800047fc <_get_interrupt_handler>:
800047fc:	e0 68 00 83 	mov	r8,131
80004800:	fe 79 08 00 	mov	r9,-63488
80004804:	f0 0c 01 0c 	sub	r12,r8,r12
80004808:	f2 0c 03 28 	ld.w	r8,r9[r12<<0x2]
8000480c:	f0 ca ff c0 	sub	r10,r8,-64
80004810:	f2 0a 03 2c 	ld.w	r12,r9[r10<<0x2]
80004814:	58 0c       	cp.w	r12,0
80004816:	5e 0c       	reteq	r12
80004818:	fe c9 d3 b8 	sub	r9,pc,-11336
8000481c:	f8 0c 12 00 	clz	r12,r12
80004820:	f2 08 00 38 	add	r8,r9,r8<<0x3
80004824:	f8 0c 11 1f 	rsub	r12,r12,31
80004828:	70 18       	ld.w	r8,r8[0x4]
8000482a:	f0 0c 03 2c 	ld.w	r12,r8[r12<<0x2]
8000482e:	5e fc       	retal	r12

80004830 <getBaudDiv>:
80004830:	f8 c8 00 01 	sub	r8,r12,1
80004834:	f0 0b 00 0b 	add	r11,r8,r11
80004838:	f6 0c 0d 0a 	divu	r10,r11,r12
8000483c:	14 9c       	mov	r12,r10
8000483e:	f4 c8 00 01 	sub	r8,r10,1
80004842:	e0 48 00 fe 	cp.w	r8,254
80004846:	e0 88 00 03 	brls	8000484c <getBaudDiv+0x1c>
8000484a:	5e fe       	retal	-1
8000484c:	5c 8c       	casts.h	r12
8000484e:	5e fc       	retal	r12

80004850 <spi_initMaster>:
80004850:	d4 01       	pushm	lr
80004852:	30 19       	mov	r9,1
80004854:	18 98       	mov	r8,r12
80004856:	f7 3b 00 0d 	ld.ub	r11,r11[13]
8000485a:	f2 0b 18 00 	cp.b	r11,r9
8000485e:	e0 88 00 04 	brls	80004866 <spi_initMaster+0x16>
80004862:	30 2c       	mov	r12,2
80004864:	d8 02       	popm	pc
80004866:	30 0a       	mov	r10,0
80004868:	e0 69 00 80 	mov	r9,128
8000486c:	99 09       	st.w	r12[0x0],r9
8000486e:	30 1e       	mov	lr,1
80004870:	70 19       	ld.w	r9,r8[0x4]
80004872:	14 9c       	mov	r12,r10
80004874:	f3 de d0 01 	bfins	r9,lr,0x0,0x1
80004878:	f3 db d0 81 	bfins	r9,r11,0x4,0x1
8000487c:	f3 da d0 e1 	bfins	r9,r10,0x7,0x1
80004880:	30 fa       	mov	r10,15
80004882:	f3 da d2 04 	bfins	r9,r10,0x10,0x4
80004886:	91 19       	st.w	r8[0x4],r9
80004888:	d8 02       	popm	pc

8000488a <spi_selectionMode>:
8000488a:	d4 01       	pushm	lr
8000488c:	30 18       	mov	r8,1
8000488e:	f0 0b 18 00 	cp.b	r11,r8
80004892:	5f be       	srhi	lr
80004894:	f0 0a 18 00 	cp.b	r10,r8
80004898:	5f b8       	srhi	r8
8000489a:	1c 48       	or	r8,lr
8000489c:	c0 30       	breq	800048a2 <spi_selectionMode+0x18>
8000489e:	30 2c       	mov	r12,2
800048a0:	d8 02       	popm	pc
800048a2:	78 18       	ld.w	r8,r12[0x4]
800048a4:	f1 db d0 21 	bfins	r8,r11,0x1,0x1
800048a8:	f1 da d0 41 	bfins	r8,r10,0x2,0x1
800048ac:	f1 d9 d3 08 	bfins	r8,r9,0x18,0x8
800048b0:	99 18       	st.w	r12[0x4],r8
800048b2:	d8 0a       	popm	pc,r12=0

800048b4 <spi_selectChip>:
800048b4:	78 19       	ld.w	r9,r12[0x4]
800048b6:	18 98       	mov	r8,r12
800048b8:	ea 19 00 0f 	orh	r9,0xf
800048bc:	99 19       	st.w	r12[0x4],r9
800048be:	78 1c       	ld.w	r12,r12[0x4]
800048c0:	e2 1c 00 04 	andl	r12,0x4,COH
800048c4:	c1 00       	breq	800048e4 <spi_selectChip+0x30>
800048c6:	30 e9       	mov	r9,14
800048c8:	f2 0b 18 00 	cp.b	r11,r9
800048cc:	e0 8b 00 1a 	brhi	80004900 <spi_selectChip+0x4c>
800048d0:	70 19       	ld.w	r9,r8[0x4]
800048d2:	b1 6b       	lsl	r11,0x10
800048d4:	30 0c       	mov	r12,0
800048d6:	ea 1b ff f0 	orh	r11,0xfff0
800048da:	e8 1b ff ff 	orl	r11,0xffff
800048de:	12 6b       	and	r11,r9
800048e0:	91 1b       	st.w	r8[0x4],r11
800048e2:	5e fc       	retal	r12
800048e4:	30 39       	mov	r9,3
800048e6:	f2 0b 18 00 	cp.b	r11,r9
800048ea:	e0 8b 00 0b 	brhi	80004900 <spi_selectChip+0x4c>
800048ee:	70 19       	ld.w	r9,r8[0x4]
800048f0:	2f 0b       	sub	r11,-16
800048f2:	30 1a       	mov	r10,1
800048f4:	f4 0b 09 4b 	lsl	r11,r10,r11
800048f8:	5c db       	com	r11
800048fa:	12 6b       	and	r11,r9
800048fc:	91 1b       	st.w	r8[0x4],r11
800048fe:	5e fc       	retal	r12
80004900:	30 2c       	mov	r12,2
80004902:	5e fc       	retal	r12

80004904 <spi_unselectChip>:
80004904:	e0 68 3a 98 	mov	r8,15000
80004908:	c0 58       	rjmp	80004912 <spi_unselectChip+0xe>
8000490a:	58 08       	cp.w	r8,0
8000490c:	c0 21       	brne	80004910 <spi_unselectChip+0xc>
8000490e:	5e ff       	retal	1
80004910:	20 18       	sub	r8,1
80004912:	78 49       	ld.w	r9,r12[0x10]
80004914:	ed b9 00 09 	bld	r9,0x9
80004918:	cf 91       	brne	8000490a <spi_unselectChip+0x6>
8000491a:	78 18       	ld.w	r8,r12[0x4]
8000491c:	ea 18 00 0f 	orh	r8,0xf
80004920:	99 18       	st.w	r12[0x4],r8
80004922:	30 08       	mov	r8,0
80004924:	ea 18 01 00 	orh	r8,0x100
80004928:	99 08       	st.w	r12[0x0],r8
8000492a:	5e fd       	retal	0

8000492c <spi_setupChipReg>:
8000492c:	d4 31       	pushm	r0-r7,lr
8000492e:	30 32       	mov	r2,3
80004930:	16 97       	mov	r7,r11
80004932:	18 96       	mov	r6,r12
80004934:	f7 34 00 0c 	ld.ub	r4,r11[12]
80004938:	e4 04 18 00 	cp.b	r4,r2
8000493c:	e0 8b 00 46 	brhi	800049c8 <spi_setupChipReg+0x9c>
80004940:	f7 31 00 0b 	ld.ub	r1,r11[11]
80004944:	30 15       	mov	r5,1
80004946:	ea 01 18 00 	cp.b	r1,r5
8000494a:	e0 8b 00 3f 	brhi	800049c8 <spi_setupChipReg+0x9c>
8000494e:	f7 33 00 08 	ld.ub	r3,r11[8]
80004952:	30 78       	mov	r8,7
80004954:	f0 03 18 00 	cp.b	r3,r8
80004958:	e0 88 00 38 	brls	800049c8 <spi_setupChipReg+0x9c>
8000495c:	31 08       	mov	r8,16
8000495e:	f0 03 18 00 	cp.b	r3,r8
80004962:	e0 8b 00 33 	brhi	800049c8 <spi_setupChipReg+0x9c>
80004966:	14 9b       	mov	r11,r10
80004968:	6e 1c       	ld.w	r12,r7[0x4]
8000496a:	c6 3f       	rcall	80004830 <getBaudDiv>
8000496c:	c2 e5       	brlt	800049c8 <spi_setupChipReg+0x9c>
8000496e:	08 9a       	mov	r10,r4
80004970:	ec 1a 00 01 	eorl	r10,0x1
80004974:	30 08       	mov	r8,0
80004976:	a1 94       	lsr	r4,0x1
80004978:	f1 d4 d0 01 	bfins	r8,r4,0x0,0x1
8000497c:	f1 da d0 21 	bfins	r8,r10,0x1,0x1
80004980:	ef 3a 00 09 	ld.ub	r10,r7[9]
80004984:	20 83       	sub	r3,8
80004986:	f1 d1 d0 61 	bfins	r8,r1,0x3,0x1
8000498a:	0f 89       	ld.ub	r9,r7[0x0]
8000498c:	f1 d3 d0 84 	bfins	r8,r3,0x4,0x4
80004990:	f1 dc d1 08 	bfins	r8,r12,0x8,0x8
80004994:	f1 da d2 08 	bfins	r8,r10,0x10,0x8
80004998:	ef 3a 00 0a 	ld.ub	r10,r7[10]
8000499c:	f1 da d3 08 	bfins	r8,r10,0x18,0x8
800049a0:	ea 09 18 00 	cp.b	r9,r5
800049a4:	c0 c0       	breq	800049bc <spi_setupChipReg+0x90>
800049a6:	c0 93       	brcs	800049b8 <spi_setupChipReg+0x8c>
800049a8:	30 2a       	mov	r10,2
800049aa:	f4 09 18 00 	cp.b	r9,r10
800049ae:	c0 90       	breq	800049c0 <spi_setupChipReg+0x94>
800049b0:	e4 09 18 00 	cp.b	r9,r2
800049b4:	c0 a1       	brne	800049c8 <spi_setupChipReg+0x9c>
800049b6:	c0 78       	rjmp	800049c4 <spi_setupChipReg+0x98>
800049b8:	8d c8       	st.w	r6[0x30],r8
800049ba:	c0 68       	rjmp	800049c6 <spi_setupChipReg+0x9a>
800049bc:	8d d8       	st.w	r6[0x34],r8
800049be:	c0 48       	rjmp	800049c6 <spi_setupChipReg+0x9a>
800049c0:	8d e8       	st.w	r6[0x38],r8
800049c2:	c0 28       	rjmp	800049c6 <spi_setupChipReg+0x9a>
800049c4:	8d f8       	st.w	r6[0x3c],r8
800049c6:	d8 3a       	popm	r0-r7,pc,r12=0
800049c8:	30 2c       	mov	r12,2
800049ca:	d8 32       	popm	r0-r7,pc

800049cc <spi_enable>:
800049cc:	30 18       	mov	r8,1
800049ce:	99 08       	st.w	r12[0x0],r8
800049d0:	5e fc       	retal	r12

800049d2 <spi_is_enabled>:
800049d2:	78 4c       	ld.w	r12,r12[0x10]
800049d4:	f9 dc c2 01 	bfextu	r12,r12,0x10,0x1
800049d8:	5e fc       	retal	r12

800049da <spi_write>:
800049da:	e0 68 3a 98 	mov	r8,15000
800049de:	c0 58       	rjmp	800049e8 <spi_write+0xe>
800049e0:	58 08       	cp.w	r8,0
800049e2:	c0 21       	brne	800049e6 <spi_write+0xc>
800049e4:	5e ff       	retal	1
800049e6:	20 18       	sub	r8,1
800049e8:	78 49       	ld.w	r9,r12[0x10]
800049ea:	ed b9 00 01 	bld	r9,0x1
800049ee:	cf 91       	brne	800049e0 <spi_write+0x6>
800049f0:	5c 7b       	castu.h	r11
800049f2:	99 3b       	st.w	r12[0xc],r11
800049f4:	5e fd       	retal	0

800049f6 <spi_read>:
800049f6:	e0 68 3a 98 	mov	r8,15000
800049fa:	c0 58       	rjmp	80004a04 <spi_read+0xe>
800049fc:	58 08       	cp.w	r8,0
800049fe:	c0 21       	brne	80004a02 <spi_read+0xc>
80004a00:	5e ff       	retal	1
80004a02:	20 18       	sub	r8,1
80004a04:	78 49       	ld.w	r9,r12[0x10]
80004a06:	e2 19 02 01 	andl	r9,0x201,COH
80004a0a:	e0 49 02 01 	cp.w	r9,513
80004a0e:	cf 71       	brne	800049fc <spi_read+0x6>
80004a10:	78 28       	ld.w	r8,r12[0x8]
80004a12:	30 0c       	mov	r12,0
80004a14:	b6 08       	st.h	r11[0x0],r8
80004a16:	5e fc       	retal	r12

80004a18 <udd_set_address>:
80004a18:	fe 68 00 00 	mov	r8,-131072
80004a1c:	70 09       	ld.w	r9,r8[0x0]
80004a1e:	a7 d9       	cbr	r9,0x7
80004a20:	91 09       	st.w	r8[0x0],r9
80004a22:	f9 dc c0 07 	bfextu	r12,r12,0x0,0x7
80004a26:	70 09       	ld.w	r9,r8[0x0]
80004a28:	e0 19 ff 80 	andl	r9,0xff80
80004a2c:	f9 e9 10 09 	or	r9,r12,r9
80004a30:	91 09       	st.w	r8[0x0],r9
80004a32:	70 09       	ld.w	r9,r8[0x0]
80004a34:	a7 b9       	sbr	r9,0x7
80004a36:	91 09       	st.w	r8[0x0],r9
80004a38:	5e fc       	retal	r12

80004a3a <udd_getaddress>:
80004a3a:	fe 68 00 00 	mov	r8,-131072
80004a3e:	70 0c       	ld.w	r12,r8[0x0]
80004a40:	f9 dc c0 07 	bfextu	r12,r12,0x0,0x7
80004a44:	5e fc       	retal	r12

80004a46 <udd_get_frame_number>:
80004a46:	fe 68 00 20 	mov	r8,-131040
80004a4a:	70 0c       	ld.w	r12,r8[0x0]
80004a4c:	f9 dc c0 6b 	bfextu	r12,r12,0x3,0xb
80004a50:	5e fc       	retal	r12
80004a52:	d7 03       	nop

80004a54 <udd_set_setup_payload>:
80004a54:	e0 68 2a 48 	mov	r8,10824
80004a58:	b0 6b       	st.h	r8[0xc],r11
80004a5a:	91 2c       	st.w	r8[0x8],r12
80004a5c:	5e fc       	retal	r12
80004a5e:	d7 03       	nop

80004a60 <udd_ep_is_halted>:
80004a60:	f9 dc c0 04 	bfextu	r12,r12,0x0,0x4
80004a64:	a3 6c       	lsl	r12,0x2
80004a66:	e0 3c fe 40 	sub	r12,130624
80004a6a:	78 0c       	ld.w	r12,r12[0x0]
80004a6c:	f9 dc c2 61 	bfextu	r12,r12,0x13,0x1
80004a70:	5e fc       	retal	r12
80004a72:	d7 03       	nop

80004a74 <udd_ep_set_halt>:
80004a74:	d4 01       	pushm	lr
80004a76:	30 38       	mov	r8,3
80004a78:	f3 dc c0 04 	bfextu	r9,r12,0x0,0x4
80004a7c:	f0 09 18 00 	cp.b	r9,r8
80004a80:	e0 8b 00 4b 	brhi	80004b16 <udd_ep_set_halt+0xa2>
80004a84:	f2 08 15 02 	lsl	r8,r9,0x2
80004a88:	fe 6e 01 c0 	mov	lr,-130624
80004a8c:	f0 0e 00 0a 	add	r10,r8,lr
80004a90:	74 0a       	ld.w	r10,r10[0x0]
80004a92:	ed ba 00 13 	bld	r10,0x13
80004a96:	c4 10       	breq	80004b18 <udd_ep_set_halt+0xa4>
80004a98:	e0 6a 04 34 	mov	r10,1076
80004a9c:	f2 cb 00 01 	sub	r11,r9,1
80004aa0:	f6 0b 00 2b 	add	r11,r11,r11<<0x2
80004aa4:	f4 0b 00 2b 	add	r11,r10,r11<<0x2
80004aa8:	76 0a       	ld.w	r10,r11[0x0]
80004aaa:	14 9e       	mov	lr,r10
80004aac:	e6 1e 20 00 	andh	lr,0x2000,COH
80004ab0:	c3 41       	brne	80004b18 <udd_ep_set_halt+0xa4>
80004ab2:	14 9e       	mov	lr,r10
80004ab4:	e6 1e 80 00 	andh	lr,0x8000,COH
80004ab8:	c2 f1       	brne	80004b16 <udd_ep_set_halt+0xa2>
80004aba:	fc 0c 18 00 	cp.b	r12,lr
80004abe:	c1 84       	brge	80004aee <udd_ep_set_halt+0x7a>
80004ac0:	fe 6e 01 30 	mov	lr,-130768
80004ac4:	f0 0e 00 0c 	add	r12,r8,lr
80004ac8:	78 0c       	ld.w	r12,r12[0x0]
80004aca:	f9 dc c1 82 	bfextu	r12,r12,0xc,0x2
80004ace:	c1 00       	breq	80004aee <udd_ep_set_halt+0x7a>
80004ad0:	30 1c       	mov	r12,1
80004ad2:	f5 dc d3 a1 	bfins	r10,r12,0x1d,0x1
80004ad6:	97 0a       	st.w	r11[0x0],r10
80004ad8:	e0 38 fe 10 	sub	r8,130576
80004adc:	e0 6a 10 00 	mov	r10,4096
80004ae0:	91 0a       	st.w	r8[0x0],r10
80004ae2:	f4 09 09 49 	lsl	r9,r10,r9
80004ae6:	fe 68 00 00 	mov	r8,-131072
80004aea:	91 69       	st.w	r8[0x18],r9
80004aec:	d8 02       	popm	pc
80004aee:	fe 6b 01 00 	mov	r11,-130816
80004af2:	f0 0b 00 0a 	add	r10,r8,r11
80004af6:	74 09       	ld.w	r9,r10[0x0]
80004af8:	a9 d9       	cbr	r9,0x9
80004afa:	95 09       	st.w	r10[0x0],r9
80004afc:	fe 6a 01 60 	mov	r10,-130720
80004b00:	f0 0a 00 09 	add	r9,r8,r10
80004b04:	34 0a       	mov	r10,64
80004b06:	93 0a       	st.w	r9[0x0],r10
80004b08:	e0 38 fe 10 	sub	r8,130576
80004b0c:	e8 69 00 00 	mov	r9,524288
80004b10:	30 1c       	mov	r12,1
80004b12:	91 09       	st.w	r8[0x0],r9
80004b14:	d8 02       	popm	pc
80004b16:	d8 0a       	popm	pc,r12=0
80004b18:	da 0a       	popm	pc,r12=1
80004b1a:	d7 03       	nop

80004b1c <udd_ep_clear_halt>:
80004b1c:	d4 01       	pushm	lr
80004b1e:	30 38       	mov	r8,3
80004b20:	f9 dc c0 04 	bfextu	r12,r12,0x0,0x4
80004b24:	f0 0c 18 00 	cp.b	r12,r8
80004b28:	e0 88 00 03 	brls	80004b2e <udd_ep_clear_halt+0x12>
80004b2c:	d8 0a       	popm	pc,r12=0
80004b2e:	e0 68 04 34 	mov	r8,1076
80004b32:	f8 c9 00 01 	sub	r9,r12,1
80004b36:	f2 09 00 29 	add	r9,r9,r9<<0x2
80004b3a:	f0 09 00 29 	add	r9,r8,r9<<0x2
80004b3e:	72 08       	ld.w	r8,r9[0x0]
80004b40:	10 9a       	mov	r10,r8
80004b42:	e6 1a 20 00 	andh	r10,0x2000,COH
80004b46:	c1 20       	breq	80004b6a <udd_ep_clear_halt+0x4e>
80004b48:	30 0a       	mov	r10,0
80004b4a:	f1 da d3 a1 	bfins	r8,r10,0x1d,0x1
80004b4e:	93 08       	st.w	r9[0x0],r8
80004b50:	e0 6a 10 00 	mov	r10,4096
80004b54:	f8 08 15 02 	lsl	r8,r12,0x2
80004b58:	e0 38 fd e0 	sub	r8,130528
80004b5c:	91 0a       	st.w	r8[0x0],r10
80004b5e:	f4 0c 09 4a 	lsl	r10,r10,r12
80004b62:	fe 68 00 00 	mov	r8,-131072
80004b66:	91 5a       	st.w	r8[0x14],r10
80004b68:	30 1a       	mov	r10,1
80004b6a:	a3 6c       	lsl	r12,0x2
80004b6c:	fe 6b 01 c0 	mov	r11,-130624
80004b70:	f8 0b 00 08 	add	r8,r12,r11
80004b74:	70 08       	ld.w	r8,r8[0x0]
80004b76:	ed b8 00 13 	bld	r8,0x13
80004b7a:	c2 31       	brne	80004bc0 <udd_ep_clear_halt+0xa4>
80004b7c:	fe 6a 01 30 	mov	r10,-130768
80004b80:	f8 0a 00 08 	add	r8,r12,r10
80004b84:	70 08       	ld.w	r8,r8[0x0]
80004b86:	ed b8 00 06 	bld	r8,0x6
80004b8a:	c0 e1       	brne	80004ba6 <udd_ep_clear_halt+0x8a>
80004b8c:	34 0a       	mov	r10,64
80004b8e:	fe 6b 01 60 	mov	r11,-130720
80004b92:	f8 0b 00 08 	add	r8,r12,r11
80004b96:	91 0a       	st.w	r8[0x0],r10
80004b98:	fe 6a 01 f0 	mov	r10,-130576
80004b9c:	f8 0a 00 08 	add	r8,r12,r10
80004ba0:	e4 6a 00 00 	mov	r10,262144
80004ba4:	91 0a       	st.w	r8[0x0],r10
80004ba6:	fe 6b 02 20 	mov	r11,-130528
80004baa:	e8 6a 00 00 	mov	r10,524288
80004bae:	f8 0b 00 08 	add	r8,r12,r11
80004bb2:	91 0a       	st.w	r8[0x0],r10
80004bb4:	e0 3c ff 00 	sub	r12,130816
80004bb8:	78 08       	ld.w	r8,r12[0x0]
80004bba:	a9 b8       	sbr	r8,0x9
80004bbc:	99 08       	st.w	r12[0x0],r8
80004bbe:	c0 38       	rjmp	80004bc4 <udd_ep_clear_halt+0xa8>
80004bc0:	58 0a       	cp.w	r10,0
80004bc2:	c0 b0       	breq	80004bd8 <udd_ep_clear_halt+0xbc>
80004bc4:	72 0a       	ld.w	r10,r9[0x0]
80004bc6:	58 0a       	cp.w	r10,0
80004bc8:	c0 84       	brge	80004bd8 <udd_ep_clear_halt+0xbc>
80004bca:	30 0b       	mov	r11,0
80004bcc:	f5 db d3 e1 	bfins	r10,r11,0x1f,0x1
80004bd0:	72 48       	ld.w	r8,r9[0x10]
80004bd2:	93 0a       	st.w	r9[0x0],r10
80004bd4:	5d 18       	icall	r8
80004bd6:	da 0a       	popm	pc,r12=1
80004bd8:	da 0a       	popm	pc,r12=1
80004bda:	d7 03       	nop

80004bdc <udd_ep_wait_stall_clear>:
80004bdc:	d4 21       	pushm	r4-r7,lr
80004bde:	30 38       	mov	r8,3
80004be0:	f9 dc c0 04 	bfextu	r12,r12,0x0,0x4
80004be4:	f0 0c 18 00 	cp.b	r12,r8
80004be8:	e0 8b 00 2a 	brhi	80004c3c <udd_ep_wait_stall_clear+0x60>
80004bec:	fe 68 00 00 	mov	r8,-131072
80004bf0:	70 78       	ld.w	r8,r8[0x1c]
80004bf2:	30 17       	mov	r7,1
80004bf4:	ee 0c 09 49 	lsl	r9,r7,r12
80004bf8:	f3 e8 00 08 	and	r8,r9,r8
80004bfc:	c2 00       	breq	80004c3c <udd_ep_wait_stall_clear+0x60>
80004bfe:	f8 c8 00 01 	sub	r8,r12,1
80004c02:	e0 69 04 34 	mov	r9,1076
80004c06:	f0 08 00 28 	add	r8,r8,r8<<0x2
80004c0a:	f2 08 00 28 	add	r8,r9,r8<<0x2
80004c0e:	70 0a       	ld.w	r10,r8[0x0]
80004c10:	58 0a       	cp.w	r10,0
80004c12:	c1 55       	brlt	80004c3c <udd_ep_wait_stall_clear+0x60>
80004c14:	a3 6c       	lsl	r12,0x2
80004c16:	e0 3c fe 40 	sub	r12,130624
80004c1a:	78 09       	ld.w	r9,r12[0x0]
80004c1c:	ed b9 00 13 	bld	r9,0x13
80004c20:	c0 40       	breq	80004c28 <udd_ep_wait_stall_clear+0x4c>
80004c22:	ed ba 00 1d 	bld	r10,0x1d
80004c26:	c0 81       	brne	80004c36 <udd_ep_wait_stall_clear+0x5a>
80004c28:	70 09       	ld.w	r9,r8[0x0]
80004c2a:	30 1c       	mov	r12,1
80004c2c:	91 4b       	st.w	r8[0x10],r11
80004c2e:	f3 dc d3 e1 	bfins	r9,r12,0x1f,0x1
80004c32:	91 09       	st.w	r8[0x0],r9
80004c34:	d8 22       	popm	r4-r7,pc
80004c36:	5d 1b       	icall	r11
80004c38:	0e 9c       	mov	r12,r7
80004c3a:	d8 22       	popm	r4-r7,pc
80004c3c:	d8 2a       	popm	r4-r7,pc,r12=0
80004c3e:	d7 03       	nop

80004c40 <udd_ep_finish_job>:
80004c40:	d4 01       	pushm	lr
80004c42:	18 99       	mov	r9,r12
80004c44:	16 9c       	mov	r12,r11
80004c46:	72 08       	ld.w	r8,r9[0x0]
80004c48:	58 08       	cp.w	r8,0
80004c4a:	c1 74       	brge	80004c78 <udd_ep_finish_job+0x38>
80004c4c:	30 0b       	mov	r11,0
80004c4e:	f1 db d3 e1 	bfins	r8,r11,0x1f,0x1
80004c52:	93 08       	st.w	r9[0x0],r8
80004c54:	72 48       	ld.w	r8,r9[0x10]
80004c56:	58 08       	cp.w	r8,0
80004c58:	c1 00       	breq	80004c78 <udd_ep_finish_job+0x38>
80004c5a:	f4 0b 15 02 	lsl	r11,r10,0x2
80004c5e:	e0 3b ff 00 	sub	r11,130816
80004c62:	76 0b       	ld.w	r11,r11[0x0]
80004c64:	ed bb 00 08 	bld	r11,0x8
80004c68:	c0 61       	brne	80004c74 <udd_ep_finish_job+0x34>
80004c6a:	ea 1a ff ff 	orh	r10,0xffff
80004c6e:	e8 1a ff 80 	orl	r10,0xff80
80004c72:	5c 5a       	castu.b	r10
80004c74:	72 2b       	ld.w	r11,r9[0x8]
80004c76:	5d 18       	icall	r8
80004c78:	d8 02       	popm	pc
80004c7a:	d7 03       	nop

80004c7c <udd_ep_abort>:
80004c7c:	d4 01       	pushm	lr
80004c7e:	30 0a       	mov	r10,0
80004c80:	ea 1a 02 00 	orh	r10,0x200
80004c84:	f9 dc c0 04 	bfextu	r12,r12,0x0,0x4
80004c88:	fe 69 00 00 	mov	r9,-131072
80004c8c:	f8 c8 00 01 	sub	r8,r12,1
80004c90:	f4 08 09 48 	lsl	r8,r10,r8
80004c94:	30 0a       	mov	r10,0
80004c96:	93 58       	st.w	r9[0x14],r8
80004c98:	f8 08 15 04 	lsl	r8,r12,0x4
80004c9c:	e0 38 fd 00 	sub	r8,130304
80004ca0:	91 2a       	st.w	r8[0x8],r10
80004ca2:	fe 6a 01 c0 	mov	r10,-130624
80004ca6:	f8 08 15 02 	lsl	r8,r12,0x2
80004caa:	f0 0a 00 0e 	add	lr,r8,r10
80004cae:	e0 6a 10 00 	mov	r10,4096
80004cb2:	f4 0c 09 4a 	lsl	r10,r10,r12
80004cb6:	93 5a       	st.w	r9[0x14],r10
80004cb8:	fe 69 01 30 	mov	r9,-130768
80004cbc:	e0 6a 20 00 	mov	r10,8192
80004cc0:	f0 09 00 0b 	add	r11,r8,r9
80004cc4:	e0 38 fe 10 	sub	r8,130576
80004cc8:	c0 68       	rjmp	80004cd4 <udd_ep_abort+0x58>
80004cca:	91 0a       	st.w	r8[0x0],r10
80004ccc:	7c 09       	ld.w	r9,lr[0x0]
80004cce:	ed b9 00 0d 	bld	r9,0xd
80004cd2:	cf d0       	breq	80004ccc <udd_ep_abort+0x50>
80004cd4:	76 09       	ld.w	r9,r11[0x0]
80004cd6:	f3 d9 c1 82 	bfextu	r9,r9,0xc,0x2
80004cda:	cf 81       	brne	80004cca <udd_ep_abort+0x4e>
80004cdc:	e0 68 04 34 	mov	r8,1076
80004ce0:	18 9a       	mov	r10,r12
80004ce2:	30 1b       	mov	r11,1
80004ce4:	20 1c       	sub	r12,1
80004ce6:	f8 0c 00 2c 	add	r12,r12,r12<<0x2
80004cea:	f0 0c 00 2c 	add	r12,r8,r12<<0x2
80004cee:	ca 9f       	rcall	80004c40 <udd_ep_finish_job>
80004cf0:	d8 02       	popm	pc
80004cf2:	d7 03       	nop

80004cf4 <udd_ep_free>:
80004cf4:	d4 21       	pushm	r4-r7,lr
80004cf6:	30 38       	mov	r8,3
80004cf8:	f9 dc c0 04 	bfextu	r12,r12,0x0,0x4
80004cfc:	f0 0c 18 00 	cp.b	r12,r8
80004d00:	e0 8b 00 21 	brhi	80004d42 <udd_ep_free+0x4e>
80004d04:	fe 68 00 00 	mov	r8,-131072
80004d08:	30 1b       	mov	r11,1
80004d0a:	70 7a       	ld.w	r10,r8[0x1c]
80004d0c:	f6 0c 09 49 	lsl	r9,r11,r12
80004d10:	5c d9       	com	r9
80004d12:	14 69       	and	r9,r10
80004d14:	91 79       	st.w	r8[0x1c],r9
80004d16:	f8 08 15 02 	lsl	r8,r12,0x2
80004d1a:	e0 38 ff 00 	sub	r8,130816
80004d1e:	18 9a       	mov	r10,r12
80004d20:	70 09       	ld.w	r9,r8[0x0]
80004d22:	20 1c       	sub	r12,1
80004d24:	a1 d9       	cbr	r9,0x1
80004d26:	f8 0c 00 2c 	add	r12,r12,r12<<0x2
80004d2a:	91 09       	st.w	r8[0x0],r9
80004d2c:	e0 68 04 34 	mov	r8,1076
80004d30:	f0 0c 00 27 	add	r7,r8,r12<<0x2
80004d34:	0e 9c       	mov	r12,r7
80004d36:	c8 5f       	rcall	80004c40 <udd_ep_finish_job>
80004d38:	6e 08       	ld.w	r8,r7[0x0]
80004d3a:	30 09       	mov	r9,0
80004d3c:	f1 d9 d3 a1 	bfins	r8,r9,0x1d,0x1
80004d40:	8f 08       	st.w	r7[0x0],r8
80004d42:	d8 22       	popm	r4-r7,pc

80004d44 <udd_ep_trans_done>:
80004d44:	d4 21       	pushm	r4-r7,lr
80004d46:	e0 69 04 34 	mov	r9,1076
80004d4a:	f8 c8 00 01 	sub	r8,r12,1
80004d4e:	18 9a       	mov	r10,r12
80004d50:	f0 08 00 28 	add	r8,r8,r8<<0x2
80004d54:	f2 08 00 28 	add	r8,r9,r8<<0x2
80004d58:	70 09       	ld.w	r9,r8[0x0]
80004d5a:	58 09       	cp.w	r9,0
80004d5c:	e0 84 00 92 	brge	80004e80 <udd_ep_trans_done+0x13c>
80004d60:	70 39       	ld.w	r9,r8[0xc]
80004d62:	70 2b       	ld.w	r11,r8[0x8]
80004d64:	16 39       	cp.w	r9,r11
80004d66:	c5 d0       	breq	80004e20 <udd_ep_trans_done+0xdc>
80004d68:	f6 09 01 09 	sub	r9,r11,r9
80004d6c:	e0 59 00 00 	cp.w	r9,65536
80004d70:	e0 88 00 06 	brls	80004d7c <udd_ep_trans_done+0x38>
80004d74:	e0 79 00 00 	mov	r9,65536
80004d78:	30 0b       	mov	r11,0
80004d7a:	c0 38       	rjmp	80004d80 <udd_ep_trans_done+0x3c>
80004d7c:	f2 0b 15 10 	lsl	r11,r9,0x10
80004d80:	f4 0c 15 02 	lsl	r12,r10,0x2
80004d84:	e0 3c ff 00 	sub	r12,130816
80004d88:	78 0e       	ld.w	lr,r12[0x0]
80004d8a:	ed be 00 08 	bld	lr,0x8
80004d8e:	c1 21       	brne	80004db2 <udd_ep_trans_done+0x6e>
80004d90:	78 0c       	ld.w	r12,r12[0x0]
80004d92:	30 8e       	mov	lr,8
80004d94:	f9 dc c0 83 	bfextu	r12,r12,0x4,0x3
80004d98:	fc 0c 09 4c 	lsl	r12,lr,r12
80004d9c:	20 1c       	sub	r12,1
80004d9e:	f3 ec 00 0c 	and	r12,r9,r12
80004da2:	c1 80       	breq	80004dd2 <udd_ep_trans_done+0x8e>
80004da4:	70 0c       	ld.w	r12,r8[0x0]
80004da6:	1c 4b       	or	r11,lr
80004da8:	30 0e       	mov	lr,0
80004daa:	f9 de d3 c1 	bfins	r12,lr,0x1e,0x1
80004dae:	91 0c       	st.w	r8[0x0],r12
80004db0:	c1 18       	rjmp	80004dd2 <udd_ep_trans_done+0x8e>
80004db2:	78 0e       	ld.w	lr,r12[0x0]
80004db4:	fd de c1 62 	bfextu	lr,lr,0xb,0x2
80004db8:	58 1e       	cp.w	lr,1
80004dba:	c0 a1       	brne	80004dce <udd_ep_trans_done+0x8a>
80004dbc:	78 0c       	ld.w	r12,r12[0x0]
80004dbe:	30 8e       	mov	lr,8
80004dc0:	f9 dc c0 83 	bfextu	r12,r12,0x4,0x3
80004dc4:	fc 0c 09 4c 	lsl	r12,lr,r12
80004dc8:	18 39       	cp.w	r9,r12
80004dca:	e0 8b 00 04 	brhi	80004dd2 <udd_ep_trans_done+0x8e>
80004dce:	e8 1b 00 14 	orl	r11,0x14
80004dd2:	70 17       	ld.w	r7,r8[0x4]
80004dd4:	70 3e       	ld.w	lr,r8[0xc]
80004dd6:	f4 0c 15 04 	lsl	r12,r10,0x4
80004dda:	ee 0e 00 0e 	add	lr,r7,lr
80004dde:	e0 3c fd 00 	sub	r12,130304
80004de2:	99 1e       	st.w	r12[0x4],lr
80004de4:	e1 b7 00 00 	mfsr	r7,0x0
80004de8:	d3 03       	ssrf	0x10
80004dea:	78 3e       	ld.w	lr,r12[0xc]
80004dec:	e2 1e 00 10 	andl	lr,0x10,COH
80004df0:	c1 41       	brne	80004e18 <udd_ep_trans_done+0xd4>
80004df2:	e8 1b 00 21 	orl	r11,0x21
80004df6:	99 2b       	st.w	r12[0x8],r11
80004df8:	70 3b       	ld.w	r11,r8[0xc]
80004dfa:	f6 09 00 09 	add	r9,r11,r9
80004dfe:	91 39       	st.w	r8[0xc],r9
80004e00:	30 08       	mov	r8,0
80004e02:	ea 18 02 00 	orh	r8,0x200
80004e06:	20 1a       	sub	r10,1
80004e08:	f0 0a 09 4a 	lsl	r10,r8,r10
80004e0c:	fe 68 00 00 	mov	r8,-131072
80004e10:	91 6a       	st.w	r8[0x18],r10
80004e12:	e3 b7 00 00 	mtsr	0x0,r7
80004e16:	d8 22       	popm	r4-r7,pc
80004e18:	e3 b7 00 00 	mtsr	0x0,r7
80004e1c:	70 39       	ld.w	r9,r8[0xc]
80004e1e:	91 29       	st.w	r8[0x8],r9
80004e20:	f4 09 15 02 	lsl	r9,r10,0x2
80004e24:	fe 6c 01 00 	mov	r12,-130816
80004e28:	f2 0c 00 0b 	add	r11,r9,r12
80004e2c:	76 0b       	ld.w	r11,r11[0x0]
80004e2e:	ed bb 00 08 	bld	r11,0x8
80004e32:	c2 41       	brne	80004e7a <udd_ep_trans_done+0x136>
80004e34:	70 0b       	ld.w	r11,r8[0x0]
80004e36:	ed bb 00 1e 	bld	r11,0x1e
80004e3a:	c2 01       	brne	80004e7a <udd_ep_trans_done+0x136>
80004e3c:	fe 6b 01 60 	mov	r11,-130720
80004e40:	f2 0b 00 08 	add	r8,r9,r11
80004e44:	30 1b       	mov	r11,1
80004e46:	91 0b       	st.w	r8[0x0],r11
80004e48:	fe 6c 01 30 	mov	r12,-130768
80004e4c:	f2 0c 00 08 	add	r8,r9,r12
80004e50:	70 08       	ld.w	r8,r8[0x0]
80004e52:	ed b8 00 10 	bld	r8,0x10
80004e56:	c0 61       	brne	80004e62 <udd_ep_trans_done+0x11e>
80004e58:	fe 6c 01 90 	mov	r12,-130672
80004e5c:	f2 0c 00 08 	add	r8,r9,r12
80004e60:	91 0b       	st.w	r8[0x0],r11
80004e62:	30 18       	mov	r8,1
80004e64:	e0 39 fe 10 	sub	r9,130576
80004e68:	93 08       	st.w	r9[0x0],r8
80004e6a:	e0 68 10 00 	mov	r8,4096
80004e6e:	f0 0a 09 4a 	lsl	r10,r8,r10
80004e72:	fe 68 00 00 	mov	r8,-131072
80004e76:	91 6a       	st.w	r8[0x18],r10
80004e78:	d8 22       	popm	r4-r7,pc
80004e7a:	10 9c       	mov	r12,r8
80004e7c:	30 0b       	mov	r11,0
80004e7e:	ce 1e       	rcall	80004c40 <udd_ep_finish_job>
80004e80:	d8 22       	popm	r4-r7,pc
80004e82:	d7 03       	nop

80004e84 <udd_ep_run>:
80004e84:	d4 31       	pushm	r0-r7,lr
80004e86:	30 3e       	mov	lr,3
80004e88:	f9 dc c0 04 	bfextu	r12,r12,0x0,0x4
80004e8c:	fc 0c 18 00 	cp.b	r12,lr
80004e90:	e0 8b 00 3c 	brhi	80004f08 <udd_ep_run+0x84>
80004e94:	fe 6e 00 00 	mov	lr,-131072
80004e98:	7c 7e       	ld.w	lr,lr[0x1c]
80004e9a:	30 17       	mov	r7,1
80004e9c:	ee 0c 09 46 	lsl	r6,r7,r12
80004ea0:	ed ee 00 0e 	and	lr,r6,lr
80004ea4:	c3 20       	breq	80004f08 <udd_ep_run+0x84>
80004ea6:	f8 0e 15 02 	lsl	lr,r12,0x2
80004eaa:	e0 3e fe 40 	sub	lr,130624
80004eae:	7c 0e       	ld.w	lr,lr[0x0]
80004eb0:	e6 1e 00 08 	andh	lr,0x8,COH
80004eb4:	c2 a1       	brne	80004f08 <udd_ep_run+0x84>
80004eb6:	e0 66 04 34 	mov	r6,1076
80004eba:	f8 ce 00 01 	sub	lr,r12,1
80004ebe:	fc 0e 00 2e 	add	lr,lr,lr<<0x2
80004ec2:	ec 0e 00 2e 	add	lr,r6,lr<<0x2
80004ec6:	7c 06       	ld.w	r6,lr[0x0]
80004ec8:	e6 16 20 00 	andh	r6,0x2000,COH
80004ecc:	c1 e1       	brne	80004f08 <udd_ep_run+0x84>
80004ece:	e1 b4 00 00 	mfsr	r4,0x0
80004ed2:	d3 03       	ssrf	0x10
80004ed4:	7c 03       	ld.w	r3,lr[0x0]
80004ed6:	06 95       	mov	r5,r3
80004ed8:	e6 15 80 00 	andh	r5,0x8000,COH
80004edc:	c0 50       	breq	80004ee6 <udd_ep_run+0x62>
80004ede:	e3 b4 00 00 	mtsr	0x0,r4
80004ee2:	0c 9c       	mov	r12,r6
80004ee4:	d8 32       	popm	r0-r7,pc
80004ee6:	06 96       	mov	r6,r3
80004ee8:	ed d7 d3 e1 	bfins	r6,r7,0x1f,0x1
80004eec:	9d 06       	st.w	lr[0x0],r6
80004eee:	e3 b4 00 00 	mtsr	0x0,r4
80004ef2:	9d 48       	st.w	lr[0x10],r8
80004ef4:	7c 08       	ld.w	r8,lr[0x0]
80004ef6:	f1 db d3 c1 	bfins	r8,r11,0x1e,0x1
80004efa:	9d 1a       	st.w	lr[0x4],r10
80004efc:	9d 29       	st.w	lr[0x8],r9
80004efe:	9d 35       	st.w	lr[0xc],r5
80004f00:	9d 08       	st.w	lr[0x0],r8
80004f02:	c2 1f       	rcall	80004d44 <udd_ep_trans_done>
80004f04:	0e 9c       	mov	r12,r7
80004f06:	d8 32       	popm	r0-r7,pc
80004f08:	d8 3a       	popm	r0-r7,pc,r12=0
80004f0a:	d7 03       	nop

80004f0c <udd_sleep_mode>:
80004f0c:	e0 68 04 71 	mov	r8,1137
80004f10:	58 0c       	cp.w	r12,0
80004f12:	c0 d1       	brne	80004f2c <udd_sleep_mode+0x20>
80004f14:	11 89       	ld.ub	r9,r8[0x0]
80004f16:	f8 09 18 00 	cp.b	r9,r12
80004f1a:	c1 80       	breq	80004f4a <udd_sleep_mode+0x3e>
80004f1c:	e1 b9 00 00 	mfsr	r9,0x0
80004f20:	d3 03       	ssrf	0x10
80004f22:	e0 68 2a 60 	mov	r8,10848
80004f26:	11 9a       	ld.ub	r10,r8[0x1]
80004f28:	20 1a       	sub	r10,1
80004f2a:	c0 d8       	rjmp	80004f44 <udd_sleep_mode+0x38>
80004f2c:	11 89       	ld.ub	r9,r8[0x0]
80004f2e:	30 08       	mov	r8,0
80004f30:	f0 09 18 00 	cp.b	r9,r8
80004f34:	c0 b1       	brne	80004f4a <udd_sleep_mode+0x3e>
80004f36:	e1 b9 00 00 	mfsr	r9,0x0
80004f3a:	d3 03       	ssrf	0x10
80004f3c:	e0 68 2a 60 	mov	r8,10848
80004f40:	11 9a       	ld.ub	r10,r8[0x1]
80004f42:	2f fa       	sub	r10,-1
80004f44:	b0 9a       	st.b	r8[0x1],r10
80004f46:	e3 b9 00 00 	mtsr	0x0,r9
80004f4a:	e0 68 04 71 	mov	r8,1137
80004f4e:	b0 8c       	st.b	r8[0x0],r12
80004f50:	5e fc       	retal	r12
80004f52:	d7 03       	nop

80004f54 <udd_send_remotewakeup>:
80004f54:	d4 01       	pushm	lr
80004f56:	e0 68 04 71 	mov	r8,1137
80004f5a:	11 89       	ld.ub	r9,r8[0x0]
80004f5c:	30 08       	mov	r8,0
80004f5e:	f0 09 18 00 	cp.b	r9,r8
80004f62:	c0 d1       	brne	80004f7c <udd_send_remotewakeup+0x28>
80004f64:	30 1c       	mov	r12,1
80004f66:	cd 3f       	rcall	80004f0c <udd_sleep_mode>
80004f68:	fe 69 08 00 	mov	r9,-129024
80004f6c:	72 08       	ld.w	r8,r9[0x0]
80004f6e:	af c8       	cbr	r8,0xe
80004f70:	93 08       	st.w	r9[0x0],r8
80004f72:	fe 69 00 00 	mov	r9,-131072
80004f76:	72 08       	ld.w	r8,r9[0x0]
80004f78:	a9 b8       	sbr	r8,0x9
80004f7a:	93 08       	st.w	r9[0x0],r8
80004f7c:	d8 02       	popm	pc
80004f7e:	d7 03       	nop

80004f80 <udd_detach>:
80004f80:	d4 01       	pushm	lr
80004f82:	fe 68 08 00 	mov	r8,-129024
80004f86:	70 09       	ld.w	r9,r8[0x0]
80004f88:	af c9       	cbr	r9,0xe
80004f8a:	fe 6a 00 00 	mov	r10,-131072
80004f8e:	91 09       	st.w	r8[0x0],r9
80004f90:	74 09       	ld.w	r9,r10[0x0]
80004f92:	a9 a9       	sbr	r9,0x8
80004f94:	95 09       	st.w	r10[0x0],r9
80004f96:	70 09       	ld.w	r9,r8[0x0]
80004f98:	af a9       	sbr	r9,0xe
80004f9a:	30 0c       	mov	r12,0
80004f9c:	91 09       	st.w	r8[0x0],r9
80004f9e:	cb 7f       	rcall	80004f0c <udd_sleep_mode>
80004fa0:	d8 02       	popm	pc
80004fa2:	d7 03       	nop

80004fa4 <udd_attach>:
80004fa4:	d4 21       	pushm	r4-r7,lr
80004fa6:	e1 b7 00 00 	mfsr	r7,0x0
80004faa:	d3 03       	ssrf	0x10
80004fac:	30 1c       	mov	r12,1
80004fae:	ca ff       	rcall	80004f0c <udd_sleep_mode>
80004fb0:	fe 69 08 00 	mov	r9,-129024
80004fb4:	fe 6a 08 04 	mov	r10,-129020
80004fb8:	72 08       	ld.w	r8,r9[0x0]
80004fba:	af c8       	cbr	r8,0xe
80004fbc:	93 08       	st.w	r9[0x0],r8
80004fbe:	74 08       	ld.w	r8,r10[0x0]
80004fc0:	ed b8 00 0e 	bld	r8,0xe
80004fc4:	cf d1       	brne	80004fbe <udd_attach+0x1a>
80004fc6:	fe 69 00 00 	mov	r9,-131072
80004fca:	72 08       	ld.w	r8,r9[0x0]
80004fcc:	a9 c8       	cbr	r8,0x8
80004fce:	93 08       	st.w	r9[0x0],r8
80004fd0:	30 8c       	mov	r12,8
80004fd2:	fe 68 00 18 	mov	r8,-131048
80004fd6:	91 0c       	st.w	r8[0x0],r12
80004fd8:	30 1a       	mov	r10,1
80004fda:	91 0a       	st.w	r8[0x0],r10
80004fdc:	31 09       	mov	r9,16
80004fde:	91 09       	st.w	r8[0x0],r9
80004fe0:	30 4b       	mov	r11,4
80004fe2:	91 0b       	st.w	r8[0x0],r11
80004fe4:	fe 68 00 08 	mov	r8,-131064
80004fe8:	91 0c       	st.w	r8[0x0],r12
80004fea:	91 0b       	st.w	r8[0x0],r11
80004fec:	30 2b       	mov	r11,2
80004fee:	91 0b       	st.w	r8[0x0],r11
80004ff0:	fe 6b 00 0c 	mov	r11,-131060
80004ff4:	97 0a       	st.w	r11[0x0],r10
80004ff6:	91 09       	st.w	r8[0x0],r9
80004ff8:	fe 69 08 00 	mov	r9,-129024
80004ffc:	72 08       	ld.w	r8,r9[0x0]
80004ffe:	af a8       	sbr	r8,0xe
80005000:	93 08       	st.w	r9[0x0],r8
80005002:	e3 b7 00 00 	mtsr	0x0,r7
80005006:	d8 22       	popm	r4-r7,pc

80005008 <udd_ctrl_in_sent>:
80005008:	d4 21       	pushm	r4-r7,lr
8000500a:	e1 b8 00 00 	mfsr	r8,0x0
8000500e:	d3 03       	ssrf	0x10
80005010:	30 1a       	mov	r10,1
80005012:	fe 69 02 20 	mov	r9,-130528
80005016:	93 0a       	st.w	r9[0x0],r10
80005018:	e3 b8 00 00 	mtsr	0x0,r8
8000501c:	e0 68 04 74 	mov	r8,1140
80005020:	e0 66 2a 48 	mov	r6,10824
80005024:	70 08       	ld.w	r8,r8[0x0]
80005026:	58 38       	cp.w	r8,3
80005028:	c1 c1       	brne	80005060 <udd_ctrl_in_sent+0x58>
8000502a:	6c 48       	ld.w	r8,r6[0x10]
8000502c:	58 08       	cp.w	r8,0
8000502e:	c0 20       	breq	80005032 <udd_ctrl_in_sent+0x2a>
80005030:	5d 18       	icall	r8
80005032:	e1 b8 00 00 	mfsr	r8,0x0
80005036:	d3 03       	ssrf	0x10
80005038:	30 1a       	mov	r10,1
8000503a:	fe 69 02 20 	mov	r9,-130528
8000503e:	93 0a       	st.w	r9[0x0],r10
80005040:	e3 b8 00 00 	mtsr	0x0,r8
80005044:	e0 69 2a 48 	mov	r9,10824
80005048:	30 08       	mov	r8,0
8000504a:	b2 68       	st.h	r9[0xc],r8
8000504c:	93 48       	st.w	r9[0x10],r8
8000504e:	93 58       	st.w	r9[0x14],r8
80005050:	fe 69 01 60 	mov	r9,-130720
80005054:	30 2a       	mov	r10,2
80005056:	93 0a       	st.w	r9[0x0],r10
80005058:	e0 69 04 74 	mov	r9,1140
8000505c:	93 08       	st.w	r9[0x0],r8
8000505e:	d8 22       	popm	r4-r7,pc
80005060:	e0 65 04 72 	mov	r5,1138
80005064:	8c 67       	ld.sh	r7,r6[0xc]
80005066:	8a 08       	ld.sh	r8,r5[0x0]
80005068:	10 17       	sub	r7,r8
8000506a:	5c 87       	casts.h	r7
8000506c:	c2 71       	brne	800050ba <udd_ctrl_in_sent+0xb2>
8000506e:	e0 69 04 30 	mov	r9,1072
80005072:	92 0a       	ld.sh	r10,r9[0x0]
80005074:	f4 08 00 08 	add	r8,r10,r8
80005078:	b2 08       	st.h	r9[0x0],r8
8000507a:	8c 39       	ld.sh	r9,r6[0x6]
8000507c:	f0 09 19 00 	cp.h	r9,r8
80005080:	c0 70       	breq	8000508e <udd_ctrl_in_sent+0x86>
80005082:	e0 68 04 70 	mov	r8,1136
80005086:	11 89       	ld.ub	r9,r8[0x0]
80005088:	ee 09 18 00 	cp.b	r9,r7
8000508c:	c1 00       	breq	800050ac <udd_ctrl_in_sent+0xa4>
8000508e:	30 49       	mov	r9,4
80005090:	e0 68 04 74 	mov	r8,1140
80005094:	91 09       	st.w	r8[0x0],r9
80005096:	e1 b9 00 00 	mfsr	r9,0x0
8000509a:	d3 03       	ssrf	0x10
8000509c:	31 08       	mov	r8,16
8000509e:	fe 6a 01 60 	mov	r10,-130720
800050a2:	95 08       	st.w	r10[0x0],r8
800050a4:	fe 6a 01 f0 	mov	r10,-130576
800050a8:	95 08       	st.w	r10[0x0],r8
800050aa:	c4 88       	rjmp	8000513a <udd_ctrl_in_sent+0x132>
800050ac:	6c 5c       	ld.w	r12,r6[0x14]
800050ae:	58 0c       	cp.w	r12,0
800050b0:	c1 00       	breq	800050d0 <udd_ctrl_in_sent+0xc8>
800050b2:	5d 1c       	icall	r12
800050b4:	c0 e0       	breq	800050d0 <udd_ctrl_in_sent+0xc8>
800050b6:	aa 07       	st.h	r5[0x0],r7
800050b8:	8c 67       	ld.sh	r7,r6[0xc]
800050ba:	33 f8       	mov	r8,63
800050bc:	f0 07 19 00 	cp.h	r7,r8
800050c0:	e0 88 00 08 	brls	800050d0 <udd_ctrl_in_sent+0xc8>
800050c4:	30 09       	mov	r9,0
800050c6:	e0 68 04 70 	mov	r8,1136
800050ca:	34 07       	mov	r7,64
800050cc:	b0 89       	st.b	r8[0x0],r9
800050ce:	c0 58       	rjmp	800050d8 <udd_ctrl_in_sent+0xd0>
800050d0:	30 19       	mov	r9,1
800050d2:	e0 68 04 70 	mov	r8,1136
800050d6:	b0 89       	st.b	r8[0x0],r9
800050d8:	e0 68 2a 48 	mov	r8,10824
800050dc:	70 2b       	ld.w	r11,r8[0x8]
800050de:	e0 68 04 72 	mov	r8,1138
800050e2:	90 0a       	ld.sh	r10,r8[0x0]
800050e4:	e1 b9 00 00 	mfsr	r9,0x0
800050e8:	d3 03       	ssrf	0x10
800050ea:	fe 68 01 30 	mov	r8,-130768
800050ee:	70 08       	ld.w	r8,r8[0x0]
800050f0:	ed b8 00 01 	bld	r8,0x1
800050f4:	c0 80       	breq	80005104 <udd_ctrl_in_sent+0xfc>
800050f6:	5c 7a       	castu.h	r10
800050f8:	30 08       	mov	r8,0
800050fa:	ea 18 d0 00 	orh	r8,0xd000
800050fe:	f6 0a 00 0a 	add	r10,r11,r10
80005102:	c0 a8       	rjmp	80005116 <udd_ctrl_in_sent+0x10e>
80005104:	e3 b9 00 00 	mtsr	0x0,r9
80005108:	30 49       	mov	r9,4
8000510a:	e0 68 04 74 	mov	r8,1140
8000510e:	91 09       	st.w	r8[0x0],r9
80005110:	d8 22       	popm	r4-r7,pc
80005112:	15 3b       	ld.ub	r11,r10++
80005114:	10 cb       	st.b	r8++,r11
80005116:	f7 d8 c0 08 	bfextu	r11,r8,0x0,0x8
8000511a:	ee 0b 19 00 	cp.h	r11,r7
8000511e:	cf a3       	brcs	80005112 <udd_ctrl_in_sent+0x10a>
80005120:	30 1a       	mov	r10,1
80005122:	fe 68 01 60 	mov	r8,-130720
80005126:	91 0a       	st.w	r8[0x0],r10
80005128:	fe 6b 01 f0 	mov	r11,-130576
8000512c:	e0 68 04 72 	mov	r8,1138
80005130:	97 0a       	st.w	r11[0x0],r10
80005132:	90 0a       	ld.sh	r10,r8[0x0]
80005134:	f4 07 00 07 	add	r7,r10,r7
80005138:	b0 07       	st.h	r8[0x0],r7
8000513a:	e3 b9 00 00 	mtsr	0x0,r9
8000513e:	d8 22       	popm	r4-r7,pc

80005140 <udd_ep_alloc>:
80005140:	d4 31       	pushm	r0-r7,lr
80005142:	30 38       	mov	r8,3
80005144:	ef dc c0 04 	bfextu	r7,r12,0x0,0x4
80005148:	f0 07 18 00 	cp.b	r7,r8
8000514c:	e0 8b 00 b1 	brhi	800052ae <udd_ep_alloc+0x16e>
80005150:	fe 68 00 00 	mov	r8,-131072
80005154:	70 76       	ld.w	r6,r8[0x1c]
80005156:	30 19       	mov	r9,1
80005158:	f2 07 09 44 	lsl	r4,r9,r7
8000515c:	e9 e6 00 06 	and	r6,r4,r6
80005160:	e0 81 00 a7 	brne	800052ae <udd_ep_alloc+0x16e>
80005164:	f1 db c0 02 	bfextu	r8,r11,0x0,0x2
80005168:	12 38       	cp.w	r8,r9
8000516a:	e0 85 00 a2 	brlt	800052ae <udd_ep_alloc+0x16e>
8000516e:	58 28       	cp.w	r8,2
80005170:	e0 8a 00 06 	brle	8000517c <udd_ep_alloc+0x3c>
80005174:	58 38       	cp.w	r8,3
80005176:	e0 81 00 9c 	brne	800052ae <udd_ep_alloc+0x16e>
8000517a:	c0 28       	rjmp	8000517e <udd_ep_alloc+0x3e>
8000517c:	12 96       	mov	r6,r9
8000517e:	5c 7a       	castu.h	r10
80005180:	f9 dc c0 e1 	bfextu	r12,r12,0x7,0x1
80005184:	ab 7b       	lsl	r11,0xb
80005186:	a3 66       	lsl	r6,0x2
80005188:	e2 1b 18 00 	andl	r11,0x1800,COH
8000518c:	e2 16 00 0c 	andl	r6,0xc,COH
80005190:	f7 ec 10 8b 	or	r11,r11,r12<<0x8
80005194:	ee 08 15 02 	lsl	r8,r7,0x2
80005198:	30 8c       	mov	r12,8
8000519a:	e0 38 ff 00 	sub	r8,130816
8000519e:	f4 0c 0c 4c 	max	r12,r10,r12
800051a2:	70 09       	ld.w	r9,r8[0x0]
800051a4:	e0 6a 04 00 	mov	r10,1024
800051a8:	e0 19 e6 83 	andl	r9,0xe683
800051ac:	f8 0a 0d 4c 	min	r12,r12,r10
800051b0:	a1 7c       	lsl	r12,0x1
800051b2:	20 1c       	sub	r12,1
800051b4:	f8 0c 12 00 	clz	r12,r12
800051b8:	f8 0c 11 1c 	rsub	r12,r12,28
800051bc:	f7 ec 10 4b 	or	r11,r11,r12<<0x4
800051c0:	0c 4b       	or	r11,r6
800051c2:	e2 1b 19 7c 	andl	r11,0x197c,COH
800051c6:	f7 e9 10 09 	or	r9,r11,r9
800051ca:	5c 84       	casts.h	r4
800051cc:	91 09       	st.w	r8[0x0],r9
800051ce:	fe 6a 00 00 	mov	r10,-131072
800051d2:	fe 69 01 0c 	mov	r9,-130804
800051d6:	30 38       	mov	r8,3
800051d8:	30 1c       	mov	r12,1
800051da:	c1 58       	rjmp	80005204 <udd_ep_alloc+0xc4>
800051dc:	74 7e       	ld.w	lr,r10[0x1c]
800051de:	f8 08 09 4b 	lsl	r11,r12,r8
800051e2:	f6 06 11 ff 	rsub	r6,r11,-1
800051e6:	f7 ee 00 0e 	and	lr,r11,lr
800051ea:	c0 b0       	breq	80005200 <udd_ep_alloc+0xc0>
800051ec:	74 7e       	ld.w	lr,r10[0x1c]
800051ee:	ed ee 00 0e 	and	lr,r6,lr
800051f2:	95 7e       	st.w	r10[0x1c],lr
800051f4:	f7 e4 10 04 	or	r4,r11,r4
800051f8:	72 0b       	ld.w	r11,r9[0x0]
800051fa:	5c 84       	casts.h	r4
800051fc:	a1 db       	cbr	r11,0x1
800051fe:	93 0b       	st.w	r9[0x0],r11
80005200:	20 18       	sub	r8,1
80005202:	20 49       	sub	r9,4
80005204:	ee 08 18 00 	cp.b	r8,r7
80005208:	fe 9b ff ea 	brhi	800051dc <udd_ep_alloc+0x9c>
8000520c:	5c 74       	castu.h	r4
8000520e:	e0 63 04 34 	mov	r3,1076
80005212:	30 02       	mov	r2,0
80005214:	fe 66 00 00 	mov	r6,-131072
80005218:	30 11       	mov	r1,1
8000521a:	30 35       	mov	r5,3
8000521c:	ee 08 15 02 	lsl	r8,r7,0x2
80005220:	fe 6b 01 00 	mov	r11,-130816
80005224:	ee c9 00 01 	sub	r9,r7,1
80005228:	f0 0b 00 0a 	add	r10,r8,r11
8000522c:	f2 09 00 29 	add	r9,r9,r9<<0x2
80005230:	fe 6b 01 30 	mov	r11,-130768
80005234:	e6 09 00 29 	add	r9,r3,r9<<0x2
80005238:	f0 0b 00 0c 	add	r12,r8,r11
8000523c:	e2 07 09 4e 	lsl	lr,r1,r7
80005240:	e8 07 08 48 	asr	r8,r4,r7
80005244:	ed b8 00 00 	bld	r8,0x0
80005248:	c2 c1       	brne	800052a0 <udd_ep_alloc+0x160>
8000524a:	72 0b       	ld.w	r11,r9[0x0]
8000524c:	16 98       	mov	r8,r11
8000524e:	f1 d2 d3 e1 	bfins	r8,r2,0x1f,0x1
80005252:	93 08       	st.w	r9[0x0],r8
80005254:	74 08       	ld.w	r8,r10[0x0]
80005256:	a1 b8       	sbr	r8,0x1
80005258:	95 08       	st.w	r10[0x0],r8
8000525a:	6c 78       	ld.w	r8,r6[0x1c]
8000525c:	fd e8 10 08 	or	r8,lr,r8
80005260:	8d 78       	st.w	r6[0x1c],r8
80005262:	78 08       	ld.w	r8,r12[0x0]
80005264:	ed b8 00 12 	bld	r8,0x12
80005268:	c0 e0       	breq	80005284 <udd_ep_alloc+0x144>
8000526a:	72 48       	ld.w	r8,r9[0x10]
8000526c:	58 08       	cp.w	r8,0
8000526e:	c2 00       	breq	800052ae <udd_ep_alloc+0x16e>
80005270:	74 0a       	ld.w	r10,r10[0x0]
80005272:	ed ba 00 08 	bld	r10,0x8
80005276:	c0 21       	brne	8000527a <udd_ep_alloc+0x13a>
80005278:	a7 b7       	sbr	r7,0x7
8000527a:	30 1c       	mov	r12,1
8000527c:	0e 9a       	mov	r10,r7
8000527e:	72 2b       	ld.w	r11,r9[0x8]
80005280:	5d 18       	icall	r8
80005282:	d8 3a       	popm	r0-r7,pc,r12=0
80005284:	74 08       	ld.w	r8,r10[0x0]
80005286:	a9 b8       	sbr	r8,0x9
80005288:	95 08       	st.w	r10[0x0],r8
8000528a:	58 0b       	cp.w	r11,0
8000528c:	c0 a4       	brge	800052a0 <udd_ep_alloc+0x160>
8000528e:	72 0b       	ld.w	r11,r9[0x0]
80005290:	72 1a       	ld.w	r10,r9[0x4]
80005292:	72 48       	ld.w	r8,r9[0x10]
80005294:	f7 db c3 c1 	bfextu	r11,r11,0x1e,0x1
80005298:	0e 9c       	mov	r12,r7
8000529a:	72 29       	ld.w	r9,r9[0x8]
8000529c:	fe b0 fd f4 	rcall	80004e84 <udd_ep_run>
800052a0:	2f f7       	sub	r7,-1
800052a2:	5c 57       	castu.b	r7
800052a4:	ea 07 18 00 	cp.b	r7,r5
800052a8:	fe 98 ff ba 	brls	8000521c <udd_ep_alloc+0xdc>
800052ac:	da 3a       	popm	r0-r7,pc,r12=1
800052ae:	d8 3a       	popm	r0-r7,pc,r12=0

800052b0 <udd_enable>:
800052b0:	d4 21       	pushm	r4-r7,lr
800052b2:	e1 b7 00 00 	mfsr	r7,0x0
800052b6:	d3 03       	ssrf	0x10
800052b8:	e0 a0 04 0c 	rcall	80005ad0 <sysclk_enable_usb>
800052bc:	30 0a       	mov	r10,0
800052be:	e0 6b 02 20 	mov	r11,544
800052c2:	fe cc ff 3e 	sub	r12,pc,-194
800052c6:	fe b0 fa 43 	rcall	8000474c <INTC_register_interrupt>
800052ca:	fe 79 0c 00 	mov	r9,-62464
800052ce:	f2 f8 01 44 	ld.w	r8,r9[324]
800052d2:	a1 a8       	sbr	r8,0x0
800052d4:	f3 48 01 44 	st.w	r9[324],r8
800052d8:	fe 68 08 00 	mov	r8,-129024
800052dc:	70 09       	ld.w	r9,r8[0x0]
800052de:	b9 c9       	cbr	r9,0x18
800052e0:	91 09       	st.w	r8[0x0],r9
800052e2:	70 09       	ld.w	r9,r8[0x0]
800052e4:	b9 b9       	sbr	r9,0x19
800052e6:	91 09       	st.w	r8[0x0],r9
800052e8:	70 09       	ld.w	r9,r8[0x0]
800052ea:	ad a9       	sbr	r9,0xc
800052ec:	91 09       	st.w	r8[0x0],r9
800052ee:	70 09       	ld.w	r9,r8[0x0]
800052f0:	af b9       	sbr	r9,0xf
800052f2:	91 09       	st.w	r8[0x0],r9
800052f4:	70 09       	ld.w	r9,r8[0x0]
800052f6:	af c9       	cbr	r9,0xe
800052f8:	91 09       	st.w	r8[0x0],r9
800052fa:	70 08       	ld.w	r8,r8[0x0]
800052fc:	fe 68 00 00 	mov	r8,-131072
80005300:	70 09       	ld.w	r9,r8[0x0]
80005302:	ad c9       	cbr	r9,0xc
80005304:	91 09       	st.w	r8[0x0],r9
80005306:	70 09       	ld.w	r9,r8[0x0]
80005308:	e8 19 0c 00 	orl	r9,0xc00
8000530c:	91 09       	st.w	r8[0x0],r9
8000530e:	e0 68 04 34 	mov	r8,1076
80005312:	30 09       	mov	r9,0
80005314:	70 0a       	ld.w	r10,r8[0x0]
80005316:	f5 da c0 1f 	bfextu	r10,r10,0x0,0x1f
8000531a:	f5 d9 d3 a1 	bfins	r10,r9,0x1d,0x1
8000531e:	91 0a       	st.w	r8[0x0],r10
80005320:	70 5a       	ld.w	r10,r8[0x14]
80005322:	f5 da c0 1f 	bfextu	r10,r10,0x0,0x1f
80005326:	f5 d9 d3 a1 	bfins	r10,r9,0x1d,0x1
8000532a:	91 5a       	st.w	r8[0x14],r10
8000532c:	70 aa       	ld.w	r10,r8[0x28]
8000532e:	f5 da c0 1f 	bfextu	r10,r10,0x0,0x1f
80005332:	f5 d9 d3 a1 	bfins	r10,r9,0x1d,0x1
80005336:	30 29       	mov	r9,2
80005338:	91 aa       	st.w	r8[0x28],r10
8000533a:	fe 68 08 08 	mov	r8,-129016
8000533e:	91 09       	st.w	r8[0x0],r9
80005340:	fe 68 08 04 	mov	r8,-129020
80005344:	70 08       	ld.w	r8,r8[0x0]
80005346:	ed b8 00 0b 	bld	r8,0xb
8000534a:	c0 41       	brne	80005352 <udd_enable+0xa2>
8000534c:	fe 68 08 0c 	mov	r8,-129012
80005350:	91 09       	st.w	r8[0x0],r9
80005352:	fe 68 08 00 	mov	r8,-129024
80005356:	70 09       	ld.w	r9,r8[0x0]
80005358:	a1 b9       	sbr	r9,0x1
8000535a:	91 09       	st.w	r8[0x0],r9
8000535c:	70 09       	ld.w	r9,r8[0x0]
8000535e:	af a9       	sbr	r9,0xe
80005360:	91 09       	st.w	r8[0x0],r9
80005362:	30 09       	mov	r9,0
80005364:	e0 68 04 71 	mov	r8,1137
80005368:	b0 89       	st.b	r8[0x0],r9
8000536a:	e1 b9 00 00 	mfsr	r9,0x0
8000536e:	d3 03       	ssrf	0x10
80005370:	e0 68 2a 60 	mov	r8,10848
80005374:	11 ba       	ld.ub	r10,r8[0x3]
80005376:	2f fa       	sub	r10,-1
80005378:	b0 ba       	st.b	r8[0x3],r10
8000537a:	e3 b9 00 00 	mtsr	0x0,r9
8000537e:	e3 b7 00 00 	mtsr	0x0,r7
80005382:	d8 22       	popm	r4-r7,pc

80005384 <udd_interrupt>:
80005384:	eb cd 40 fe 	pushm	r1-r7,lr
80005388:	fe 69 00 04 	mov	r9,-131068
8000538c:	72 08       	ld.w	r8,r9[0x0]
8000538e:	ed b8 00 02 	bld	r8,0x2
80005392:	c1 11       	brne	800053b4 <udd_interrupt+0x30>
80005394:	fe 68 00 08 	mov	r8,-131064
80005398:	30 49       	mov	r9,4
8000539a:	91 09       	st.w	r8[0x0],r9
8000539c:	fe 68 08 04 	mov	r8,-129020
800053a0:	70 08       	ld.w	r8,r8[0x0]
800053a2:	f1 d8 c1 82 	bfextu	r8,r8,0xc,0x2
800053a6:	c0 31       	brne	800053ac <udd_interrupt+0x28>
800053a8:	e0 a0 09 84 	rcall	800066b0 <udc_sof_notify>
800053ac:	e0 a0 0d 22 	rcall	80006df0 <main_sof_action>
800053b0:	e0 8f 02 ea 	bral	80005984 <udd_interrupt+0x600>
800053b4:	72 08       	ld.w	r8,r9[0x0]
800053b6:	ed b8 00 01 	bld	r8,0x1
800053ba:	c0 91       	brne	800053cc <udd_interrupt+0x48>
800053bc:	30 29       	mov	r9,2
800053be:	fe 68 00 08 	mov	r8,-131064
800053c2:	91 09       	st.w	r8[0x0],r9
800053c4:	e0 a0 09 76 	rcall	800066b0 <udc_sof_notify>
800053c8:	e0 8f 02 de 	bral	80005984 <udd_interrupt+0x600>
800053cc:	fe 68 00 00 	mov	r8,-131072
800053d0:	70 18       	ld.w	r8,r8[0x4]
800053d2:	ed b8 00 0c 	bld	r8,0xc
800053d6:	e0 81 01 a1 	brne	80005718 <udd_interrupt+0x394>
800053da:	fe 68 02 20 	mov	r8,-130528
800053de:	31 09       	mov	r9,16
800053e0:	91 09       	st.w	r8[0x0],r9
800053e2:	30 89       	mov	r9,8
800053e4:	91 09       	st.w	r8[0x0],r9
800053e6:	fe 69 01 30 	mov	r9,-130768
800053ea:	72 08       	ld.w	r8,r9[0x0]
800053ec:	ed b8 00 02 	bld	r8,0x2
800053f0:	e0 81 00 91 	brne	80005512 <udd_interrupt+0x18e>
800053f4:	e0 68 04 74 	mov	r8,1140
800053f8:	70 08       	ld.w	r8,r8[0x0]
800053fa:	58 08       	cp.w	r8,0
800053fc:	c1 d0       	breq	80005436 <udd_interrupt+0xb2>
800053fe:	e0 68 2a 48 	mov	r8,10824
80005402:	70 48       	ld.w	r8,r8[0x10]
80005404:	58 08       	cp.w	r8,0
80005406:	c0 20       	breq	8000540a <udd_interrupt+0x86>
80005408:	5d 18       	icall	r8
8000540a:	e1 b8 00 00 	mfsr	r8,0x0
8000540e:	d3 03       	ssrf	0x10
80005410:	30 1a       	mov	r10,1
80005412:	fe 69 02 20 	mov	r9,-130528
80005416:	93 0a       	st.w	r9[0x0],r10
80005418:	e3 b8 00 00 	mtsr	0x0,r8
8000541c:	e0 69 2a 48 	mov	r9,10824
80005420:	30 08       	mov	r8,0
80005422:	b2 68       	st.h	r9[0xc],r8
80005424:	93 48       	st.w	r9[0x10],r8
80005426:	93 58       	st.w	r9[0x14],r8
80005428:	fe 69 01 60 	mov	r9,-130720
8000542c:	30 2a       	mov	r10,2
8000542e:	93 0a       	st.w	r9[0x0],r10
80005430:	e0 69 04 74 	mov	r9,1140
80005434:	93 08       	st.w	r9[0x0],r8
80005436:	fe 68 01 30 	mov	r8,-130768
8000543a:	70 08       	ld.w	r8,r8[0x0]
8000543c:	f1 d8 c2 8b 	bfextu	r8,r8,0x14,0xb
80005440:	58 88       	cp.w	r8,8
80005442:	c2 a1       	brne	80005496 <udd_interrupt+0x112>
80005444:	30 08       	mov	r8,0
80005446:	ea 18 d0 00 	orh	r8,0xd000
8000544a:	e0 6a 2a 48 	mov	r10,10824
8000544e:	30 09       	mov	r9,0
80005450:	ea 19 30 00 	orh	r9,0x3000
80005454:	f0 0a 00 0b 	add	r11,r8,r10
80005458:	11 3c       	ld.ub	r12,r8++
8000545a:	f6 09 0b 0c 	st.b	r11[r9],r12
8000545e:	e0 67 2a 48 	mov	r7,10824
80005462:	30 8b       	mov	r11,8
80005464:	ea 1b d0 00 	orh	r11,0xd000
80005468:	16 38       	cp.w	r8,r11
8000546a:	cf 51       	brne	80005454 <udd_interrupt+0xd0>
8000546c:	8e 9a       	ld.uh	r10,r7[0x2]
8000546e:	f4 0b 16 08 	lsr	r11,r10,0x8
80005472:	f7 ea 10 8a 	or	r10,r11,r10<<0x8
80005476:	8e a9       	ld.uh	r9,r7[0x4]
80005478:	ae 1a       	st.h	r7[0x2],r10
8000547a:	f2 0a 16 08 	lsr	r10,r9,0x8
8000547e:	f5 e9 10 89 	or	r9,r10,r9<<0x8
80005482:	8e b8       	ld.uh	r8,r7[0x6]
80005484:	ae 29       	st.h	r7[0x4],r9
80005486:	f0 09 16 08 	lsr	r9,r8,0x8
8000548a:	f3 e8 10 88 	or	r8,r9,r8<<0x8
8000548e:	ae 38       	st.h	r7[0x6],r8
80005490:	e0 a0 09 d8 	rcall	80006840 <udc_process_setup>
80005494:	c0 c1       	brne	800054ac <udd_interrupt+0x128>
80005496:	e8 69 00 00 	mov	r9,524288
8000549a:	fe 68 01 f0 	mov	r8,-130576
8000549e:	91 09       	st.w	r8[0x0],r9
800054a0:	30 59       	mov	r9,5
800054a2:	e0 68 04 74 	mov	r8,1140
800054a6:	91 09       	st.w	r8[0x0],r9
800054a8:	30 49       	mov	r9,4
800054aa:	ce 08       	rjmp	8000566a <udd_interrupt+0x2e6>
800054ac:	30 49       	mov	r9,4
800054ae:	fe 68 01 60 	mov	r8,-130720
800054b2:	91 09       	st.w	r8[0x0],r9
800054b4:	30 09       	mov	r9,0
800054b6:	0f 8a       	ld.ub	r10,r7[0x0]
800054b8:	f2 0a 18 00 	cp.b	r10,r9
800054bc:	c0 d4       	brge	800054d6 <udd_interrupt+0x152>
800054be:	e0 69 04 30 	mov	r9,1072
800054c2:	30 08       	mov	r8,0
800054c4:	b2 08       	st.h	r9[0x0],r8
800054c6:	e0 69 04 72 	mov	r9,1138
800054ca:	b2 08       	st.h	r9[0x0],r8
800054cc:	30 29       	mov	r9,2
800054ce:	e0 68 04 74 	mov	r8,1140
800054d2:	91 09       	st.w	r8[0x0],r9
800054d4:	c2 98       	rjmp	80005526 <udd_interrupt+0x1a2>
800054d6:	8e 3b       	ld.sh	r11,r7[0x6]
800054d8:	30 09       	mov	r9,0
800054da:	e0 6a 04 74 	mov	r10,1140
800054de:	f2 0b 19 00 	cp.h	r11,r9
800054e2:	c0 41       	brne	800054ea <udd_interrupt+0x166>
800054e4:	30 39       	mov	r9,3
800054e6:	95 09       	st.w	r10[0x0],r9
800054e8:	ca 28       	rjmp	8000562c <udd_interrupt+0x2a8>
800054ea:	e0 6b 04 30 	mov	r11,1072
800054ee:	b6 09       	st.h	r11[0x0],r9
800054f0:	e0 6b 04 72 	mov	r11,1138
800054f4:	b6 09       	st.h	r11[0x0],r9
800054f6:	30 19       	mov	r9,1
800054f8:	95 09       	st.w	r10[0x0],r9
800054fa:	31 09       	mov	r9,16
800054fc:	91 09       	st.w	r8[0x0],r9
800054fe:	e1 b8 00 00 	mfsr	r8,0x0
80005502:	d3 03       	ssrf	0x10
80005504:	fe 6a 01 f0 	mov	r10,-130576
80005508:	95 09       	st.w	r10[0x0],r9
8000550a:	e3 b8 00 00 	mtsr	0x0,r8
8000550e:	e0 8f 02 3b 	bral	80005984 <udd_interrupt+0x600>
80005512:	72 08       	ld.w	r8,r9[0x0]
80005514:	ed b8 00 00 	bld	r8,0x0
80005518:	c0 c1       	brne	80005530 <udd_interrupt+0x1ac>
8000551a:	fe 68 01 c0 	mov	r8,-130624
8000551e:	70 08       	ld.w	r8,r8[0x0]
80005520:	ed b8 00 00 	bld	r8,0x0
80005524:	c0 61       	brne	80005530 <udd_interrupt+0x1ac>
80005526:	fe b0 fd 71 	rcall	80005008 <udd_ctrl_in_sent>
8000552a:	e0 8f 02 2d 	bral	80005984 <udd_interrupt+0x600>
8000552e:	d7 03       	nop
80005530:	fe 68 01 30 	mov	r8,-130768
80005534:	70 09       	ld.w	r9,r8[0x0]
80005536:	ed b9 00 01 	bld	r9,0x1
8000553a:	e0 81 00 b1 	brne	8000569c <udd_interrupt+0x318>
8000553e:	e0 6a 04 74 	mov	r10,1140
80005542:	74 09       	ld.w	r9,r10[0x0]
80005544:	58 19       	cp.w	r9,1
80005546:	c2 80       	breq	80005596 <udd_interrupt+0x212>
80005548:	58 29       	cp.w	r9,2
8000554a:	5f 08       	sreq	r8
8000554c:	58 49       	cp.w	r9,4
8000554e:	5f 09       	sreq	r9
80005550:	f3 e8 10 08 	or	r8,r9,r8
80005554:	c0 80       	breq	80005564 <udd_interrupt+0x1e0>
80005556:	e0 68 2a 48 	mov	r8,10824
8000555a:	70 48       	ld.w	r8,r8[0x10]
8000555c:	58 08       	cp.w	r8,0
8000555e:	c0 a0       	breq	80005572 <udd_interrupt+0x1ee>
80005560:	5d 18       	icall	r8
80005562:	c0 88       	rjmp	80005572 <udd_interrupt+0x1ee>
80005564:	30 58       	mov	r8,5
80005566:	e8 69 00 00 	mov	r9,524288
8000556a:	95 08       	st.w	r10[0x0],r8
8000556c:	fe 68 01 f0 	mov	r8,-130576
80005570:	91 09       	st.w	r8[0x0],r9
80005572:	e1 b8 00 00 	mfsr	r8,0x0
80005576:	d3 03       	ssrf	0x10
80005578:	30 1a       	mov	r10,1
8000557a:	fe 69 02 20 	mov	r9,-130528
8000557e:	93 0a       	st.w	r9[0x0],r10
80005580:	e3 b8 00 00 	mtsr	0x0,r8
80005584:	30 08       	mov	r8,0
80005586:	e0 69 2a 48 	mov	r9,10824
8000558a:	30 2a       	mov	r10,2
8000558c:	b2 68       	st.h	r9[0xc],r8
8000558e:	93 48       	st.w	r9[0x10],r8
80005590:	93 58       	st.w	r9[0x14],r8
80005592:	e0 8f 01 97 	bral	800058c0 <udd_interrupt+0x53c>
80005596:	e0 69 2a 48 	mov	r9,10824
8000559a:	70 08       	ld.w	r8,r8[0x0]
8000559c:	92 6a       	ld.sh	r10,r9[0xc]
8000559e:	f1 d8 c2 8b 	bfextu	r8,r8,0x14,0xb
800055a2:	e0 69 04 72 	mov	r9,1138
800055a6:	f9 da c0 10 	bfextu	r12,r10,0x0,0x10
800055aa:	92 09       	ld.sh	r9,r9[0x0]
800055ac:	f7 d9 c0 10 	bfextu	r11,r9,0x0,0x10
800055b0:	f0 0b 00 0b 	add	r11,r8,r11
800055b4:	16 3c       	cp.w	r12,r11
800055b6:	c0 44       	brge	800055be <udd_interrupt+0x23a>
800055b8:	f4 09 01 08 	sub	r8,r10,r9
800055bc:	5c 88       	casts.h	r8
800055be:	5c 79       	castu.h	r9
800055c0:	e0 6a 2a 48 	mov	r10,10824
800055c4:	74 2a       	ld.w	r10,r10[0x8]
800055c6:	12 0a       	add	r10,r9
800055c8:	30 09       	mov	r9,0
800055ca:	ea 19 d0 00 	orh	r9,0xd000
800055ce:	c0 38       	rjmp	800055d4 <udd_interrupt+0x250>
800055d0:	13 3b       	ld.ub	r11,r9++
800055d2:	14 cb       	st.b	r10++,r11
800055d4:	f7 d9 c0 08 	bfextu	r11,r9,0x0,0x8
800055d8:	f0 0b 19 00 	cp.h	r11,r8
800055dc:	cf a3       	brcs	800055d0 <udd_interrupt+0x24c>
800055de:	e0 67 04 72 	mov	r7,1138
800055e2:	8e 09       	ld.sh	r9,r7[0x0]
800055e4:	10 09       	add	r9,r8
800055e6:	5c 89       	casts.h	r9
800055e8:	ae 09       	st.h	r7[0x0],r9
800055ea:	34 0a       	mov	r10,64
800055ec:	f4 08 19 00 	cp.h	r8,r10
800055f0:	c0 e1       	brne	8000560c <udd_interrupt+0x288>
800055f2:	e0 68 2a 48 	mov	r8,10824
800055f6:	f9 d9 c0 10 	bfextu	r12,r9,0x0,0x10
800055fa:	e0 66 04 30 	mov	r6,1072
800055fe:	90 bb       	ld.uh	r11,r8[0x6]
80005600:	8c 8a       	ld.uh	r10,r6[0x0]
80005602:	f8 0a 00 0a 	add	r10,r12,r10
80005606:	14 3b       	cp.w	r11,r10
80005608:	e0 89 00 1e 	brgt	80005644 <udd_interrupt+0x2c0>
8000560c:	e0 68 2a 48 	mov	r8,10824
80005610:	b0 69       	st.h	r8[0xc],r9
80005612:	70 5c       	ld.w	r12,r8[0x14]
80005614:	58 0c       	cp.w	r12,0
80005616:	c0 30       	breq	8000561c <udd_interrupt+0x298>
80005618:	5d 1c       	icall	r12
8000561a:	c1 e0       	breq	80005656 <udd_interrupt+0x2d2>
8000561c:	30 29       	mov	r9,2
8000561e:	fe 68 01 60 	mov	r8,-130720
80005622:	30 3a       	mov	r10,3
80005624:	91 09       	st.w	r8[0x0],r9
80005626:	e0 69 04 74 	mov	r9,1140
8000562a:	93 0a       	st.w	r9[0x0],r10
8000562c:	e1 bb 00 00 	mfsr	r11,0x0
80005630:	d3 03       	ssrf	0x10
80005632:	30 1a       	mov	r10,1
80005634:	91 0a       	st.w	r8[0x0],r10
80005636:	fe 69 01 f0 	mov	r9,-130576
8000563a:	93 0a       	st.w	r9[0x0],r10
8000563c:	30 8a       	mov	r10,8
8000563e:	91 0a       	st.w	r8[0x0],r10
80005640:	93 0a       	st.w	r9[0x0],r10
80005642:	c5 f8       	rjmp	80005700 <udd_interrupt+0x37c>
80005644:	90 6a       	ld.sh	r10,r8[0xc]
80005646:	f2 0a 19 00 	cp.h	r10,r9
8000564a:	c1 a1       	brne	8000567e <udd_interrupt+0x2fa>
8000564c:	70 5c       	ld.w	r12,r8[0x14]
8000564e:	58 0c       	cp.w	r12,0
80005650:	c0 30       	breq	80005656 <udd_interrupt+0x2d2>
80005652:	5d 1c       	icall	r12
80005654:	c0 e1       	brne	80005670 <udd_interrupt+0x2ec>
80005656:	e8 69 00 00 	mov	r9,524288
8000565a:	fe 68 01 f0 	mov	r8,-130576
8000565e:	91 09       	st.w	r8[0x0],r9
80005660:	30 59       	mov	r9,5
80005662:	e0 68 04 74 	mov	r8,1140
80005666:	91 09       	st.w	r8[0x0],r9
80005668:	30 29       	mov	r9,2
8000566a:	fe 68 01 60 	mov	r8,-130720
8000566e:	c5 38       	rjmp	80005714 <udd_interrupt+0x390>
80005670:	8e 09       	ld.sh	r9,r7[0x0]
80005672:	8c 08       	ld.sh	r8,r6[0x0]
80005674:	f2 08 00 08 	add	r8,r9,r8
80005678:	ac 08       	st.h	r6[0x0],r8
8000567a:	30 08       	mov	r8,0
8000567c:	ae 08       	st.h	r7[0x0],r8
8000567e:	fe 69 01 60 	mov	r9,-130720
80005682:	30 28       	mov	r8,2
80005684:	93 08       	st.w	r9[0x0],r8
80005686:	31 08       	mov	r8,16
80005688:	93 08       	st.w	r9[0x0],r8
8000568a:	e1 b9 00 00 	mfsr	r9,0x0
8000568e:	d3 03       	ssrf	0x10
80005690:	fe 6a 01 f0 	mov	r10,-130576
80005694:	95 08       	st.w	r10[0x0],r8
80005696:	e3 b9 00 00 	mtsr	0x0,r9
8000569a:	c3 ab       	rjmp	8000550e <udd_interrupt+0x18a>
8000569c:	70 09       	ld.w	r9,r8[0x0]
8000569e:	ed b9 00 03 	bld	r9,0x3
800056a2:	c1 11       	brne	800056c4 <udd_interrupt+0x340>
800056a4:	30 8a       	mov	r10,8
800056a6:	fe 69 01 60 	mov	r9,-130720
800056aa:	93 0a       	st.w	r9[0x0],r10
800056ac:	70 08       	ld.w	r8,r8[0x0]
800056ae:	ed b8 00 00 	bld	r8,0x0
800056b2:	e0 80 01 69 	breq	80005984 <udd_interrupt+0x600>
800056b6:	e0 68 04 74 	mov	r8,1140
800056ba:	70 08       	ld.w	r8,r8[0x0]
800056bc:	58 38       	cp.w	r8,3
800056be:	e0 81 01 63 	brne	80005984 <udd_interrupt+0x600>
800056c2:	c2 58       	rjmp	8000570c <udd_interrupt+0x388>
800056c4:	70 09       	ld.w	r9,r8[0x0]
800056c6:	ed b9 00 04 	bld	r9,0x4
800056ca:	c2 71       	brne	80005718 <udd_interrupt+0x394>
800056cc:	fe 69 01 60 	mov	r9,-130720
800056d0:	31 0a       	mov	r10,16
800056d2:	93 0a       	st.w	r9[0x0],r10
800056d4:	70 08       	ld.w	r8,r8[0x0]
800056d6:	ed b8 00 01 	bld	r8,0x1
800056da:	e0 80 01 55 	breq	80005984 <udd_interrupt+0x600>
800056de:	e0 6a 04 74 	mov	r10,1140
800056e2:	74 08       	ld.w	r8,r10[0x0]
800056e4:	58 18       	cp.w	r8,1
800056e6:	c1 01       	brne	80005706 <udd_interrupt+0x382>
800056e8:	30 3b       	mov	r11,3
800056ea:	95 0b       	st.w	r10[0x0],r11
800056ec:	e1 bb 00 00 	mfsr	r11,0x0
800056f0:	d3 03       	ssrf	0x10
800056f2:	93 08       	st.w	r9[0x0],r8
800056f4:	fe 6a 01 f0 	mov	r10,-130576
800056f8:	95 08       	st.w	r10[0x0],r8
800056fa:	30 88       	mov	r8,8
800056fc:	93 08       	st.w	r9[0x0],r8
800056fe:	95 08       	st.w	r10[0x0],r8
80005700:	e3 bb 00 00 	mtsr	0x0,r11
80005704:	c0 5b       	rjmp	8000550e <udd_interrupt+0x18a>
80005706:	58 48       	cp.w	r8,4
80005708:	e0 81 01 3e 	brne	80005984 <udd_interrupt+0x600>
8000570c:	e8 69 00 00 	mov	r9,524288
80005710:	fe 68 01 f0 	mov	r8,-130576
80005714:	91 09       	st.w	r8[0x0],r9
80005716:	c3 79       	rjmp	80005984 <udd_interrupt+0x600>
80005718:	e0 67 04 34 	mov	r7,1076
8000571c:	fe 6b 01 34 	mov	r11,-130764
80005720:	0e 99       	mov	r9,r7
80005722:	30 0e       	mov	lr,0
80005724:	fe 66 00 00 	mov	r6,-131072
80005728:	30 02       	mov	r2,0
8000572a:	ea 12 02 00 	orh	r2,0x200
8000572e:	e0 63 10 00 	mov	r3,4096
80005732:	6c 48       	ld.w	r8,r6[0x10]
80005734:	e4 0e 09 4c 	lsl	r12,r2,lr
80005738:	fc ca ff ff 	sub	r10,lr,-1
8000573c:	f6 c4 ff 70 	sub	r4,r11,-144
80005740:	f9 e8 00 08 	and	r8,r12,r8
80005744:	14 9e       	mov	lr,r10
80005746:	c1 d0       	breq	80005780 <udd_interrupt+0x3fc>
80005748:	6c 18       	ld.w	r8,r6[0x4]
8000574a:	f9 e8 00 08 	and	r8,r12,r8
8000574e:	c1 90       	breq	80005780 <udd_interrupt+0x3fc>
80005750:	f4 08 15 04 	lsl	r8,r10,0x4
80005754:	e0 38 fd 00 	sub	r8,130304
80005758:	70 3b       	ld.w	r11,r8[0xc]
8000575a:	ed bb 00 00 	bld	r11,0x0
8000575e:	e0 80 01 13 	breq	80005984 <udd_interrupt+0x600>
80005762:	fe 6b 00 00 	mov	r11,-131072
80005766:	97 5c       	st.w	r11[0x14],r12
80005768:	70 38       	ld.w	r8,r8[0xc]
8000576a:	b1 88       	lsr	r8,0x10
8000576c:	c0 60       	breq	80005778 <udd_interrupt+0x3f4>
8000576e:	72 3b       	ld.w	r11,r9[0xc]
80005770:	f6 08 01 08 	sub	r8,r11,r8
80005774:	93 28       	st.w	r9[0x8],r8
80005776:	93 38       	st.w	r9[0xc],r8
80005778:	14 9c       	mov	r12,r10
8000577a:	fe b0 fa e5 	rcall	80004d44 <udd_ep_trans_done>
8000577e:	c0 39       	rjmp	80005984 <udd_interrupt+0x600>
80005780:	6c 48       	ld.w	r8,r6[0x10]
80005782:	e6 0a 09 45 	lsl	r5,r3,r10
80005786:	eb e8 00 08 	and	r8,r5,r8
8000578a:	c4 10       	breq	8000580c <udd_interrupt+0x488>
8000578c:	68 0c       	ld.w	r12,r4[0x0]
8000578e:	e0 71 fe d0 	mov	r1,130768
80005792:	f9 dc c0 01 	bfextu	r12,r12,0x0,0x1
80005796:	f6 01 00 08 	add	r8,r11,r1
8000579a:	58 0c       	cp.w	r12,0
8000579c:	c1 30       	breq	800057c2 <udd_interrupt+0x43e>
8000579e:	76 0c       	ld.w	r12,r11[0x0]
800057a0:	ed bc 00 00 	bld	r12,0x0
800057a4:	c0 f1       	brne	800057c2 <udd_interrupt+0x43e>
800057a6:	f6 c8 ff 10 	sub	r8,r11,-240
800057aa:	30 1c       	mov	r12,1
800057ac:	91 0c       	st.w	r8[0x0],r12
800057ae:	2d 0b       	sub	r11,-48
800057b0:	97 0c       	st.w	r11[0x0],r12
800057b2:	12 9c       	mov	r12,r9
800057b4:	e0 69 40 00 	mov	r9,16384
800057b8:	30 0b       	mov	r11,0
800057ba:	91 09       	st.w	r8[0x0],r9
800057bc:	fe b0 fa 42 	rcall	80004c40 <udd_ep_finish_job>
800057c0:	ce 28       	rjmp	80005984 <udd_interrupt+0x600>
800057c2:	68 0c       	ld.w	r12,r4[0x0]
800057c4:	ed bc 00 0c 	bld	r12,0xc
800057c8:	c2 21       	brne	8000580c <udd_interrupt+0x488>
800057ca:	76 0c       	ld.w	r12,r11[0x0]
800057cc:	f9 dc c1 82 	bfextu	r12,r12,0xc,0x2
800057d0:	c1 e1       	brne	8000580c <udd_interrupt+0x488>
800057d2:	fe 6b 02 20 	mov	r11,-130528
800057d6:	f0 0b 00 0a 	add	r10,r8,r11
800057da:	e0 6b 10 00 	mov	r11,4096
800057de:	95 0b       	st.w	r10[0x0],r11
800057e0:	fe 6a 00 00 	mov	r10,-131072
800057e4:	95 55       	st.w	r10[0x14],r5
800057e6:	72 0a       	ld.w	r10,r9[0x0]
800057e8:	f5 dc d3 a1 	bfins	r10,r12,0x1d,0x1
800057ec:	93 0a       	st.w	r9[0x0],r10
800057ee:	fe 69 01 00 	mov	r9,-130816
800057f2:	f0 09 00 0a 	add	r10,r8,r9
800057f6:	74 09       	ld.w	r9,r10[0x0]
800057f8:	a9 d9       	cbr	r9,0x9
800057fa:	95 09       	st.w	r10[0x0],r9
800057fc:	e8 69 00 00 	mov	r9,524288
80005800:	e0 38 fe 10 	sub	r8,130576
80005804:	91 09       	st.w	r8[0x0],r9
80005806:	e4 69 00 00 	mov	r9,262144
8000580a:	c8 5b       	rjmp	80005714 <udd_interrupt+0x390>
8000580c:	2e c9       	sub	r9,-20
8000580e:	2f cb       	sub	r11,-4
80005810:	58 3a       	cp.w	r10,3
80005812:	c9 01       	brne	80005732 <udd_interrupt+0x3ae>
80005814:	cb f8       	rjmp	80005992 <udd_interrupt+0x60e>
80005816:	30 89       	mov	r9,8
80005818:	fe 68 00 08 	mov	r8,-131064
8000581c:	30 06       	mov	r6,0
8000581e:	91 09       	st.w	r8[0x0],r9
80005820:	2f f6       	sub	r6,-1
80005822:	0e 9c       	mov	r12,r7
80005824:	0c 9a       	mov	r10,r6
80005826:	2e c7       	sub	r7,-20
80005828:	30 1b       	mov	r11,1
8000582a:	fe b0 fa 0b 	rcall	80004c40 <udd_ep_finish_job>
8000582e:	58 36       	cp.w	r6,3
80005830:	cf 81       	brne	80005820 <udd_interrupt+0x49c>
80005832:	e0 a0 07 e7 	rcall	80006800 <udc_reset>
80005836:	fe 68 00 00 	mov	r8,-131072
8000583a:	70 09       	ld.w	r9,r8[0x0]
8000583c:	e0 19 ff 80 	andl	r9,0xff80
80005840:	91 09       	st.w	r8[0x0],r9
80005842:	30 8c       	mov	r12,8
80005844:	70 09       	ld.w	r9,r8[0x0]
80005846:	a7 b9       	sbr	r9,0x7
80005848:	91 09       	st.w	r8[0x0],r9
8000584a:	34 0b       	mov	r11,64
8000584c:	fe 69 01 00 	mov	r9,-130816
80005850:	f6 0c 0c 4b 	max	r11,r11,r12
80005854:	72 0a       	ld.w	r10,r9[0x0]
80005856:	e0 6c 04 00 	mov	r12,1024
8000585a:	e0 1a e6 83 	andl	r10,0xe683
8000585e:	f6 0c 0d 4b 	min	r11,r11,r12
80005862:	a1 7b       	lsl	r11,0x1
80005864:	20 1b       	sub	r11,1
80005866:	f6 0b 12 00 	clz	r11,r11
8000586a:	f6 0b 11 1c 	rsub	r11,r11,28
8000586e:	a5 6b       	lsl	r11,0x4
80005870:	e2 1b 19 7c 	andl	r11,0x197c,COH
80005874:	f7 ea 10 0a 	or	r10,r11,r10
80005878:	93 0a       	st.w	r9[0x0],r10
8000587a:	72 0a       	ld.w	r10,r9[0x0]
8000587c:	a1 ba       	sbr	r10,0x1
8000587e:	93 0a       	st.w	r9[0x0],r10
80005880:	70 79       	ld.w	r9,r8[0x1c]
80005882:	a1 a9       	sbr	r9,0x0
80005884:	91 79       	st.w	r8[0x1c],r9
80005886:	e1 bb 00 00 	mfsr	r11,0x0
8000588a:	d3 03       	ssrf	0x10
8000588c:	fe 69 01 f0 	mov	r9,-130576
80005890:	30 4a       	mov	r10,4
80005892:	93 0a       	st.w	r9[0x0],r10
80005894:	30 2a       	mov	r10,2
80005896:	93 0a       	st.w	r9[0x0],r10
80005898:	e0 69 10 00 	mov	r9,4096
8000589c:	91 69       	st.w	r8[0x18],r9
8000589e:	e3 bb 00 00 	mtsr	0x0,r11
800058a2:	e1 b8 00 00 	mfsr	r8,0x0
800058a6:	d3 03       	ssrf	0x10
800058a8:	30 1b       	mov	r11,1
800058aa:	fe 69 02 20 	mov	r9,-130528
800058ae:	93 0b       	st.w	r9[0x0],r11
800058b0:	e3 b8 00 00 	mtsr	0x0,r8
800058b4:	30 08       	mov	r8,0
800058b6:	e0 69 2a 48 	mov	r9,10824
800058ba:	b2 68       	st.h	r9[0xc],r8
800058bc:	93 48       	st.w	r9[0x10],r8
800058be:	93 58       	st.w	r9[0x14],r8
800058c0:	fe 69 01 60 	mov	r9,-130720
800058c4:	93 0a       	st.w	r9[0x0],r10
800058c6:	e0 69 04 74 	mov	r9,1140
800058ca:	93 08       	st.w	r9[0x0],r8
800058cc:	c5 c8       	rjmp	80005984 <udd_interrupt+0x600>
800058ce:	fe 69 00 10 	mov	r9,-131056
800058d2:	72 09       	ld.w	r9,r9[0x0]
800058d4:	ed b9 00 00 	bld	r9,0x0
800058d8:	c1 a1       	brne	8000590c <udd_interrupt+0x588>
800058da:	70 08       	ld.w	r8,r8[0x0]
800058dc:	ed b8 00 00 	bld	r8,0x0
800058e0:	c1 61       	brne	8000590c <udd_interrupt+0x588>
800058e2:	fe 68 08 00 	mov	r8,-129024
800058e6:	70 09       	ld.w	r9,r8[0x0]
800058e8:	af c9       	cbr	r9,0xe
800058ea:	91 09       	st.w	r8[0x0],r9
800058ec:	fe 69 00 14 	mov	r9,-131052
800058f0:	30 1a       	mov	r10,1
800058f2:	93 0a       	st.w	r9[0x0],r10
800058f4:	fe 69 00 18 	mov	r9,-131048
800058f8:	31 0a       	mov	r10,16
800058fa:	93 0a       	st.w	r9[0x0],r10
800058fc:	70 09       	ld.w	r9,r8[0x0]
800058fe:	af a9       	sbr	r9,0xe
80005900:	91 09       	st.w	r8[0x0],r9
80005902:	fe b0 fb 05 	rcall	80004f0c <udd_sleep_mode>
80005906:	e0 a0 0a 87 	rcall	80006e14 <main_suspend_action>
8000590a:	c3 d8       	rjmp	80005984 <udd_interrupt+0x600>
8000590c:	fe 68 00 10 	mov	r8,-131056
80005910:	70 08       	ld.w	r8,r8[0x0]
80005912:	ed b8 00 04 	bld	r8,0x4
80005916:	c2 01       	brne	80005956 <udd_interrupt+0x5d2>
80005918:	fe 68 00 04 	mov	r8,-131068
8000591c:	70 08       	ld.w	r8,r8[0x0]
8000591e:	ed b8 00 04 	bld	r8,0x4
80005922:	c1 a1       	brne	80005956 <udd_interrupt+0x5d2>
80005924:	fe 69 08 00 	mov	r9,-129024
80005928:	fe 6a 08 04 	mov	r10,-129020
8000592c:	72 08       	ld.w	r8,r9[0x0]
8000592e:	af c8       	cbr	r8,0xe
80005930:	93 08       	st.w	r9[0x0],r8
80005932:	74 08       	ld.w	r8,r10[0x0]
80005934:	ed b8 00 0e 	bld	r8,0xe
80005938:	cf d1       	brne	80005932 <udd_interrupt+0x5ae>
8000593a:	fe 69 00 14 	mov	r9,-131052
8000593e:	30 18       	mov	r8,1
80005940:	31 0a       	mov	r10,16
80005942:	10 9c       	mov	r12,r8
80005944:	93 0a       	st.w	r9[0x0],r10
80005946:	fe 69 00 18 	mov	r9,-131048
8000594a:	93 08       	st.w	r9[0x0],r8
8000594c:	fe b0 fa e0 	rcall	80004f0c <udd_sleep_mode>
80005950:	e0 a0 0a 5e 	rcall	80006e0c <main_resume_action>
80005954:	c1 88       	rjmp	80005984 <udd_interrupt+0x600>
80005956:	fe 6a 08 04 	mov	r10,-129020
8000595a:	74 08       	ld.w	r8,r10[0x0]
8000595c:	ed b8 00 01 	bld	r8,0x1
80005960:	c1 21       	brne	80005984 <udd_interrupt+0x600>
80005962:	fe 68 08 00 	mov	r8,-129024
80005966:	70 09       	ld.w	r9,r8[0x0]
80005968:	af c9       	cbr	r9,0xe
8000596a:	91 09       	st.w	r8[0x0],r9
8000596c:	fe 69 08 08 	mov	r9,-129016
80005970:	30 2b       	mov	r11,2
80005972:	93 0b       	st.w	r9[0x0],r11
80005974:	70 09       	ld.w	r9,r8[0x0]
80005976:	af a9       	sbr	r9,0xe
80005978:	91 09       	st.w	r8[0x0],r9
8000597a:	74 0c       	ld.w	r12,r10[0x0]
8000597c:	f9 dc c1 61 	bfextu	r12,r12,0xb,0x1
80005980:	e0 a0 0a 4e 	rcall	80006e1c <main_vbus_action>
80005984:	fe 68 00 00 	mov	r8,-131072
80005988:	f0 f8 08 18 	ld.w	r8,r8[2072]
8000598c:	e3 cd 40 fe 	ldm	sp++,r1-r7,lr
80005990:	d6 03       	rete
80005992:	fe 68 00 04 	mov	r8,-131068
80005996:	70 0c       	ld.w	r12,r8[0x0]
80005998:	e2 1c 00 08 	andl	r12,0x8,COH
8000599c:	fe 91 ff 3d 	brne	80005816 <udd_interrupt+0x492>
800059a0:	c9 7b       	rjmp	800058ce <udd_interrupt+0x54a>
800059a2:	d7 03       	nop

800059a4 <_stext>:
800059a4:	e0 6d 80 00 	mov	sp,32768
800059a8:	fe c0 e7 a8 	sub	r0,pc,-6232
800059ac:	e3 b0 00 01 	mtsr	0x4,r0
800059b0:	d5 53       	csrf	0x15
800059b2:	30 80       	mov	r0,8
800059b4:	e0 61 01 70 	mov	r1,368
800059b8:	02 30       	cp.w	r0,r1
800059ba:	c0 72       	brcc	800059c8 <idata_load_loop_end>
800059bc:	fe c2 e3 34 	sub	r2,pc,-7372

800059c0 <idata_load_loop>:
800059c0:	a5 05       	ld.d	r4,r2++
800059c2:	a1 24       	st.d	r0++,r4
800059c4:	02 30       	cp.w	r0,r1
800059c6:	cf d3       	brcs	800059c0 <idata_load_loop>

800059c8 <idata_load_loop_end>:
800059c8:	e0 60 01 70 	mov	r0,368
800059cc:	e0 61 2a 70 	mov	r1,10864
800059d0:	02 30       	cp.w	r0,r1
800059d2:	c0 62       	brcc	800059de <udata_clear_loop_end>
800059d4:	30 02       	mov	r2,0
800059d6:	30 03       	mov	r3,0

800059d8 <udata_clear_loop>:
800059d8:	a1 22       	st.d	r0++,r2
800059da:	02 30       	cp.w	r0,r1
800059dc:	cf e3       	brcs	800059d8 <udata_clear_loop>

800059de <udata_clear_loop_end>:
800059de:	fe cf eb ae 	sub	pc,pc,-5202
800059e2:	d7 03       	nop

800059e4 <osc_enable>:
800059e4:	e1 ba 00 00 	mfsr	r10,0x0
800059e8:	d3 03       	ssrf	0x10
800059ea:	58 0c       	cp.w	r12,0
800059ec:	c0 60       	breq	800059f8 <osc_enable+0x14>
800059ee:	30 28       	mov	r8,2
800059f0:	f0 0c 18 00 	cp.b	r12,r8
800059f4:	c1 01       	brne	80005a14 <osc_enable+0x30>
800059f6:	c0 a8       	rjmp	80005a0a <osc_enable+0x26>
800059f8:	fe 78 0c 00 	mov	r8,-62464
800059fc:	e0 69 03 07 	mov	r9,775
80005a00:	91 a9       	st.w	r8[0x28],r9
80005a02:	70 09       	ld.w	r9,r8[0x0]
80005a04:	a3 a9       	sbr	r9,0x2
80005a06:	91 09       	st.w	r8[0x0],r9
80005a08:	c0 68       	rjmp	80005a14 <osc_enable+0x30>
80005a0a:	e2 69 01 01 	mov	r9,131329
80005a0e:	fe 78 0c 00 	mov	r8,-62464
80005a12:	91 c9       	st.w	r8[0x30],r9
80005a14:	e3 ba 00 00 	mtsr	0x0,r10
80005a18:	5e fc       	retal	r12
80005a1a:	d7 03       	nop

80005a1c <sysclk_init>:
80005a1c:	d4 21       	pushm	r4-r7,lr
80005a1e:	30 0c       	mov	r12,0
80005a20:	ce 2f       	rcall	800059e4 <osc_enable>
80005a22:	fe 79 0c 00 	mov	r9,-62464
80005a26:	73 58       	ld.w	r8,r9[0x54]
80005a28:	fe 77 0c 00 	mov	r7,-62464
80005a2c:	e2 18 00 80 	andl	r8,0x80,COH
80005a30:	cf b0       	breq	80005a26 <sysclk_init+0xa>
80005a32:	e0 6c 1b 00 	mov	r12,6912
80005a36:	ea 1c 00 b7 	orh	r12,0xb7
80005a3a:	fe b0 f5 c8 	rcall	800045ca <flashc_set_bus_freq>
80005a3e:	e1 b9 00 00 	mfsr	r9,0x0
80005a42:	d3 03       	ssrf	0x10
80005a44:	6e 08       	ld.w	r8,r7[0x0]
80005a46:	e0 18 ff fc 	andl	r8,0xfffc
80005a4a:	a1 a8       	sbr	r8,0x0
80005a4c:	8f 08       	st.w	r7[0x0],r8
80005a4e:	e3 b9 00 00 	mtsr	0x0,r9
80005a52:	d8 22       	popm	r4-r7,pc

80005a54 <sysclk_priv_enable_module>:
80005a54:	e1 b9 00 00 	mfsr	r9,0x0
80005a58:	d3 03       	ssrf	0x10
80005a5a:	fe 7a 0c 00 	mov	r10,-62464
80005a5e:	75 58       	ld.w	r8,r10[0x54]
80005a60:	ed b8 00 06 	bld	r8,0x6
80005a64:	cf d1       	brne	80005a5e <sysclk_priv_enable_module+0xa>
80005a66:	30 18       	mov	r8,1
80005a68:	a3 6c       	lsl	r12,0x2
80005a6a:	f0 0b 09 4b 	lsl	r11,r8,r11
80005a6e:	e0 2c f3 f8 	sub	r12,62456
80005a72:	78 08       	ld.w	r8,r12[0x0]
80005a74:	10 4b       	or	r11,r8
80005a76:	99 0b       	st.w	r12[0x0],r11
80005a78:	e3 b9 00 00 	mtsr	0x0,r9
80005a7c:	5e fc       	retal	r12
80005a7e:	d7 03       	nop

80005a80 <sysclk_enable_pbb_module>:
80005a80:	d4 21       	pushm	r4-r7,lr
80005a82:	18 97       	mov	r7,r12
80005a84:	e1 b6 00 00 	mfsr	r6,0x0
80005a88:	d3 03       	ssrf	0x10
80005a8a:	e0 68 04 78 	mov	r8,1144
80005a8e:	11 89       	ld.ub	r9,r8[0x0]
80005a90:	30 08       	mov	r8,0
80005a92:	f0 09 18 00 	cp.b	r9,r8
80005a96:	c0 41       	brne	80005a9e <sysclk_enable_pbb_module+0x1e>
80005a98:	30 2b       	mov	r11,2
80005a9a:	30 1c       	mov	r12,1
80005a9c:	cd cf       	rcall	80005a54 <sysclk_priv_enable_module>
80005a9e:	e0 68 04 78 	mov	r8,1144
80005aa2:	11 89       	ld.ub	r9,r8[0x0]
80005aa4:	2f f9       	sub	r9,-1
80005aa6:	b0 89       	st.b	r8[0x0],r9
80005aa8:	e3 b6 00 00 	mtsr	0x0,r6
80005aac:	30 3c       	mov	r12,3
80005aae:	0e 9b       	mov	r11,r7
80005ab0:	cd 2f       	rcall	80005a54 <sysclk_priv_enable_module>
80005ab2:	d8 22       	popm	r4-r7,pc

80005ab4 <T.65>:
80005ab4:	d4 21       	pushm	r4-r7,lr
80005ab6:	fe 77 0c 00 	mov	r7,-62464
80005aba:	6f 5c       	ld.w	r12,r7[0x54]
80005abc:	e2 1c 00 80 	andl	r12,0x80,COH
80005ac0:	c0 61       	brne	80005acc <T.65+0x18>
80005ac2:	c9 1f       	rcall	800059e4 <osc_enable>
80005ac4:	6f 58       	ld.w	r8,r7[0x54]
80005ac6:	ed b8 00 07 	bld	r8,0x7
80005aca:	cf d1       	brne	80005ac4 <T.65+0x10>
80005acc:	d8 22       	popm	r4-r7,pc
80005ace:	d7 03       	nop

80005ad0 <sysclk_enable_usb>:
80005ad0:	d4 21       	pushm	r4-r7,lr
80005ad2:	30 1c       	mov	r12,1
80005ad4:	cd 6f       	rcall	80005a80 <sysclk_enable_pbb_module>
80005ad6:	30 3b       	mov	r11,3
80005ad8:	30 1c       	mov	r12,1
80005ada:	cb df       	rcall	80005a54 <sysclk_priv_enable_module>
80005adc:	fe 77 0c 00 	mov	r7,-62464
80005ae0:	6f 58       	ld.w	r8,r7[0x54]
80005ae2:	ed b8 00 01 	bld	r8,0x1
80005ae6:	c0 c0       	breq	80005afe <sysclk_enable_usb+0x2e>
80005ae8:	ce 6f       	rcall	80005ab4 <T.65>
80005aea:	e0 68 01 0d 	mov	r8,269
80005aee:	ea 18 3f 07 	orh	r8,0x3f07
80005af2:	0e 99       	mov	r9,r7
80005af4:	8f 98       	st.w	r7[0x24],r8
80005af6:	73 58       	ld.w	r8,r9[0x54]
80005af8:	ed b8 00 01 	bld	r8,0x1
80005afc:	cf d1       	brne	80005af6 <sysclk_enable_usb+0x26>
80005afe:	30 79       	mov	r9,7
80005b00:	fe 78 0c 00 	mov	r8,-62464
80005b04:	f1 49 00 6c 	st.w	r8[108],r9
80005b08:	d8 22       	popm	r4-r7,pc
80005b0a:	d7 03       	nop

80005b0c <get_nb_lun>:
80005b0c:	5e ff       	retal	1
80005b0e:	d7 03       	nop

80005b10 <mem_test_unit_ready>:
80005b10:	d4 01       	pushm	lr
80005b12:	58 0c       	cp.w	r12,0
80005b14:	c0 20       	breq	80005b18 <mem_test_unit_ready+0x8>
80005b16:	da 0a       	popm	pc,r12=1
80005b18:	fe c8 e6 28 	sub	r8,pc,-6616
80005b1c:	70 0c       	ld.w	r12,r8[0x0]
80005b1e:	5d 1c       	icall	r12
80005b20:	d8 02       	popm	pc
80005b22:	d7 03       	nop

80005b24 <mem_read_capacity>:
80005b24:	d4 01       	pushm	lr
80005b26:	58 0c       	cp.w	r12,0
80005b28:	c0 20       	breq	80005b2c <mem_read_capacity+0x8>
80005b2a:	da 0a       	popm	pc,r12=1
80005b2c:	16 9c       	mov	r12,r11
80005b2e:	fe c8 e6 3e 	sub	r8,pc,-6594
80005b32:	70 18       	ld.w	r8,r8[0x4]
80005b34:	5d 18       	icall	r8
80005b36:	d8 02       	popm	pc

80005b38 <mem_sector_size>:
80005b38:	58 0c       	cp.w	r12,0
80005b3a:	5f 0c       	sreq	r12
80005b3c:	5e fc       	retal	r12
80005b3e:	d7 03       	nop

80005b40 <mem_wr_protect>:
80005b40:	d4 01       	pushm	lr
80005b42:	58 0c       	cp.w	r12,0
80005b44:	c0 20       	breq	80005b48 <mem_wr_protect+0x8>
80005b46:	da 0a       	popm	pc,r12=1
80005b48:	fe c8 e6 58 	sub	r8,pc,-6568
80005b4c:	70 2c       	ld.w	r12,r8[0x8]
80005b4e:	5d 1c       	icall	r12
80005b50:	d8 02       	popm	pc
80005b52:	d7 03       	nop

80005b54 <mem_name>:
80005b54:	58 0c       	cp.w	r12,0
80005b56:	c0 20       	breq	80005b5a <mem_name+0x6>
80005b58:	5e fd       	retal	0
80005b5a:	fe c8 e6 6a 	sub	r8,pc,-6550
80005b5e:	70 8c       	ld.w	r12,r8[0x20]
80005b60:	5e fc       	retal	r12
80005b62:	d7 03       	nop

80005b64 <ram_2_memory>:
80005b64:	d4 21       	pushm	r4-r7,lr
80005b66:	20 1d       	sub	sp,4
80005b68:	18 96       	mov	r6,r12
80005b6a:	16 97       	mov	r7,r11
80005b6c:	14 95       	mov	r5,r10
80005b6e:	c5 3c       	rcall	80005c14 <ui_start_write>
80005b70:	58 06       	cp.w	r6,0
80005b72:	c0 30       	breq	80005b78 <ram_2_memory+0x14>
80005b74:	30 1c       	mov	r12,1
80005b76:	c0 78       	rjmp	80005b84 <ram_2_memory+0x20>
80005b78:	fe c8 e6 88 	sub	r8,pc,-6520
80005b7c:	0a 9b       	mov	r11,r5
80005b7e:	0e 9c       	mov	r12,r7
80005b80:	70 78       	ld.w	r8,r8[0x1c]
80005b82:	5d 18       	icall	r8
80005b84:	50 0c       	stdsp	sp[0x0],r12
80005b86:	c5 9c       	rcall	80005c38 <ui_stop_write>
80005b88:	40 0c       	lddsp	r12,sp[0x0]
80005b8a:	2f fd       	sub	sp,-4
80005b8c:	d8 22       	popm	r4-r7,pc
80005b8e:	d7 03       	nop

80005b90 <usb_2_memory>:
80005b90:	d4 21       	pushm	r4-r7,lr
80005b92:	20 1d       	sub	sp,4
80005b94:	18 96       	mov	r6,r12
80005b96:	16 97       	mov	r7,r11
80005b98:	14 95       	mov	r5,r10
80005b9a:	c3 dc       	rcall	80005c14 <ui_start_write>
80005b9c:	58 06       	cp.w	r6,0
80005b9e:	c0 30       	breq	80005ba4 <usb_2_memory+0x14>
80005ba0:	30 1c       	mov	r12,1
80005ba2:	c0 88       	rjmp	80005bb2 <usb_2_memory+0x22>
80005ba4:	fe c8 e6 b4 	sub	r8,pc,-6476
80005ba8:	f7 d5 c0 10 	bfextu	r11,r5,0x0,0x10
80005bac:	0e 9c       	mov	r12,r7
80005bae:	70 58       	ld.w	r8,r8[0x14]
80005bb0:	5d 18       	icall	r8
80005bb2:	50 0c       	stdsp	sp[0x0],r12
80005bb4:	c4 2c       	rcall	80005c38 <ui_stop_write>
80005bb6:	40 0c       	lddsp	r12,sp[0x0]
80005bb8:	2f fd       	sub	sp,-4
80005bba:	d8 22       	popm	r4-r7,pc

80005bbc <memory_2_ram>:
80005bbc:	d4 21       	pushm	r4-r7,lr
80005bbe:	20 1d       	sub	sp,4
80005bc0:	18 96       	mov	r6,r12
80005bc2:	16 97       	mov	r7,r11
80005bc4:	14 95       	mov	r5,r10
80005bc6:	c2 dc       	rcall	80005c20 <ui_start_read>
80005bc8:	58 06       	cp.w	r6,0
80005bca:	c0 30       	breq	80005bd0 <memory_2_ram+0x14>
80005bcc:	30 1c       	mov	r12,1
80005bce:	c0 78       	rjmp	80005bdc <memory_2_ram+0x20>
80005bd0:	fe c8 e6 e0 	sub	r8,pc,-6432
80005bd4:	0a 9b       	mov	r11,r5
80005bd6:	0e 9c       	mov	r12,r7
80005bd8:	70 68       	ld.w	r8,r8[0x18]
80005bda:	5d 18       	icall	r8
80005bdc:	50 0c       	stdsp	sp[0x0],r12
80005bde:	c3 3c       	rcall	80005c44 <ui_stop_read>
80005be0:	40 0c       	lddsp	r12,sp[0x0]
80005be2:	2f fd       	sub	sp,-4
80005be4:	d8 22       	popm	r4-r7,pc
80005be6:	d7 03       	nop

80005be8 <memory_2_usb>:
80005be8:	d4 21       	pushm	r4-r7,lr
80005bea:	20 1d       	sub	sp,4
80005bec:	18 96       	mov	r6,r12
80005bee:	16 97       	mov	r7,r11
80005bf0:	14 95       	mov	r5,r10
80005bf2:	c1 7c       	rcall	80005c20 <ui_start_read>
80005bf4:	58 06       	cp.w	r6,0
80005bf6:	c0 30       	breq	80005bfc <memory_2_usb+0x14>
80005bf8:	30 1c       	mov	r12,1
80005bfa:	c0 88       	rjmp	80005c0a <memory_2_usb+0x22>
80005bfc:	fe c8 e7 0c 	sub	r8,pc,-6388
80005c00:	f7 d5 c0 10 	bfextu	r11,r5,0x0,0x10
80005c04:	0e 9c       	mov	r12,r7
80005c06:	70 48       	ld.w	r8,r8[0x10]
80005c08:	5d 18       	icall	r8
80005c0a:	50 0c       	stdsp	sp[0x0],r12
80005c0c:	c1 cc       	rcall	80005c44 <ui_stop_read>
80005c0e:	40 0c       	lddsp	r12,sp[0x0]
80005c10:	2f fd       	sub	sp,-4
80005c12:	d8 22       	popm	r4-r7,pc

80005c14 <ui_start_write>:
80005c14:	d4 01       	pushm	lr
80005c16:	30 1c       	mov	r12,1
80005c18:	fe b0 f4 88 	rcall	80004528 <LED_On>
80005c1c:	d8 02       	popm	pc
80005c1e:	d7 03       	nop

80005c20 <ui_start_read>:
80005c20:	d4 01       	pushm	lr
80005c22:	30 2c       	mov	r12,2
80005c24:	fe b0 f4 82 	rcall	80004528 <LED_On>
80005c28:	d8 02       	popm	pc
80005c2a:	d7 03       	nop

80005c2c <ui_wakeup>:
80005c2c:	d4 01       	pushm	lr
80005c2e:	30 1c       	mov	r12,1
80005c30:	fe b0 f4 7c 	rcall	80004528 <LED_On>
80005c34:	d8 02       	popm	pc
80005c36:	d7 03       	nop

80005c38 <ui_stop_write>:
80005c38:	d4 01       	pushm	lr
80005c3a:	30 1c       	mov	r12,1
80005c3c:	fe b0 f4 98 	rcall	8000456c <LED_Off>
80005c40:	d8 02       	popm	pc
80005c42:	d7 03       	nop

80005c44 <ui_stop_read>:
80005c44:	d4 01       	pushm	lr
80005c46:	30 2c       	mov	r12,2
80005c48:	fe b0 f4 92 	rcall	8000456c <LED_Off>
80005c4c:	d8 02       	popm	pc
80005c4e:	d7 03       	nop

80005c50 <ui_powerdown>:
80005c50:	d4 01       	pushm	lr
80005c52:	30 1c       	mov	r12,1
80005c54:	fe b0 f4 8c 	rcall	8000456c <LED_Off>
80005c58:	30 2c       	mov	r12,2
80005c5a:	fe b0 f4 89 	rcall	8000456c <LED_Off>
80005c5e:	d8 02       	popm	pc

80005c60 <ui_init>:
80005c60:	d4 21       	pushm	r4-r7,lr
80005c62:	e1 b7 00 00 	mfsr	r7,0x0
80005c66:	d3 03       	ssrf	0x10
80005c68:	30 0a       	mov	r10,0
80005c6a:	34 1b       	mov	r11,65
80005c6c:	fe cc ff e4 	sub	r12,pc,-28
80005c70:	fe b0 f5 6e 	rcall	8000474c <INTC_register_interrupt>
80005c74:	e3 b7 00 00 	mtsr	0x0,r7
80005c78:	30 1c       	mov	r12,1
80005c7a:	fe b0 f4 57 	rcall	80004528 <LED_On>
80005c7e:	30 2c       	mov	r12,2
80005c80:	fe b0 f4 76 	rcall	8000456c <LED_Off>
80005c84:	d8 22       	popm	r4-r7,pc
80005c86:	d7 03       	nop

80005c88 <ui_wakeup_isr>:
80005c88:	d4 01       	pushm	lr
80005c8a:	30 dc       	mov	r12,13
80005c8c:	fe b0 f5 54 	rcall	80004734 <gpio_clear_pin_interrupt_flag>
80005c90:	30 6b       	mov	r11,6
80005c92:	fe 7c 0d 80 	mov	r12,-62080
80005c96:	fe b0 f4 8f 	rcall	800045b4 <eic_clear_interrupt_line>
80005c9a:	fe b0 f9 5d 	rcall	80004f54 <udd_send_remotewakeup>
80005c9e:	d4 02       	popm	lr
80005ca0:	d6 03       	rete
80005ca2:	d7 03       	nop

80005ca4 <udi_hid_kbd_getsetting>:
80005ca4:	5e fd       	retal	0
80005ca6:	d7 03       	nop

80005ca8 <udi_hid_kbd_setreport>:
80005ca8:	e0 68 2a 48 	mov	r8,10824
80005cac:	30 2a       	mov	r10,2
80005cae:	90 99       	ld.uh	r9,r8[0x2]
80005cb0:	f2 0b 16 08 	lsr	r11,r9,0x8
80005cb4:	f4 0b 19 00 	cp.h	r11,r10
80005cb8:	c1 21       	brne	80005cdc <udi_hid_kbd_setreport+0x34>
80005cba:	f3 d9 c0 08 	bfextu	r9,r9,0x0,0x8
80005cbe:	c0 f1       	brne	80005cdc <udi_hid_kbd_setreport+0x34>
80005cc0:	90 39       	ld.sh	r9,r8[0x6]
80005cc2:	30 1a       	mov	r10,1
80005cc4:	f4 09 19 00 	cp.h	r9,r10
80005cc8:	c0 a1       	brne	80005cdc <udi_hid_kbd_setreport+0x34>
80005cca:	b0 69       	st.h	r8[0xc],r9
80005ccc:	e0 69 04 85 	mov	r9,1157
80005cd0:	30 1c       	mov	r12,1
80005cd2:	91 29       	st.w	r8[0x8],r9
80005cd4:	fe c9 fe 80 	sub	r9,pc,-384
80005cd8:	91 49       	st.w	r8[0x10],r9
80005cda:	5e fc       	retal	r12
80005cdc:	5e fd       	retal	0
80005cde:	d7 03       	nop

80005ce0 <udi_hid_kbd_send_report>:
80005ce0:	d4 21       	pushm	r4-r7,lr
80005ce2:	e0 67 04 7a 	mov	r7,1146
80005ce6:	0f 88       	ld.ub	r8,r7[0x0]
80005ce8:	58 08       	cp.w	r8,0
80005cea:	c0 20       	breq	80005cee <udi_hid_kbd_send_report+0xe>
80005cec:	d8 2a       	popm	r4-r7,pc,r12=0
80005cee:	e0 69 04 7c 	mov	r9,1148
80005cf2:	e0 6b 04 88 	mov	r11,1160
80005cf6:	12 9a       	mov	r10,r9
80005cf8:	f6 e4 00 00 	ld.d	r4,r11[0]
80005cfc:	f2 e5 00 00 	st.d	r9[0],r4
80005d00:	e0 69 04 79 	mov	r9,1145
80005d04:	30 0b       	mov	r11,0
80005d06:	b2 88       	st.b	r9[0x0],r8
80005d08:	e0 6c 00 83 	mov	r12,131
80005d0c:	fe c8 ff f0 	sub	r8,pc,-16
80005d10:	30 89       	mov	r9,8
80005d12:	fe b0 f8 b9 	rcall	80004e84 <udd_ep_run>
80005d16:	ae 8c       	st.b	r7[0x0],r12
80005d18:	d8 22       	popm	r4-r7,pc
80005d1a:	d7 03       	nop

80005d1c <udi_hid_kbd_report_sent>:
80005d1c:	d4 01       	pushm	lr
80005d1e:	e0 69 04 7a 	mov	r9,1146
80005d22:	30 08       	mov	r8,0
80005d24:	b2 88       	st.b	r9[0x0],r8
80005d26:	e0 69 04 79 	mov	r9,1145
80005d2a:	13 89       	ld.ub	r9,r9[0x0]
80005d2c:	f0 09 18 00 	cp.b	r9,r8
80005d30:	c0 20       	breq	80005d34 <udi_hid_kbd_report_sent+0x18>
80005d32:	cd 7f       	rcall	80005ce0 <udi_hid_kbd_send_report>
80005d34:	d8 02       	popm	pc
80005d36:	d7 03       	nop

80005d38 <udi_hid_kbd_down>:
80005d38:	d4 21       	pushm	r4-r7,lr
80005d3a:	e1 b7 00 00 	mfsr	r7,0x0
80005d3e:	d3 03       	ssrf	0x10
80005d40:	e0 69 04 88 	mov	r9,1160
80005d44:	30 28       	mov	r8,2
80005d46:	2f e9       	sub	r9,-2
80005d48:	30 8b       	mov	r11,8
80005d4a:	f0 ce ff ff 	sub	lr,r8,-1
80005d4e:	13 8a       	ld.ub	r10,r9[0x0]
80005d50:	58 0a       	cp.w	r10,0
80005d52:	c1 00       	breq	80005d72 <udi_hid_kbd_down+0x3a>
80005d54:	f4 0c 18 00 	cp.b	r12,r10
80005d58:	c0 41       	brne	80005d60 <udi_hid_kbd_down+0x28>
80005d5a:	e3 b7 00 00 	mtsr	0x0,r7
80005d5e:	da 2a       	popm	r4-r7,pc,r12=1
80005d60:	f1 de c0 08 	bfextu	r8,lr,0x0,0x8
80005d64:	2f f9       	sub	r9,-1
80005d66:	f6 08 18 00 	cp.b	r8,r11
80005d6a:	cf 01       	brne	80005d4a <udi_hid_kbd_down+0x12>
80005d6c:	e3 b7 00 00 	mtsr	0x0,r7
80005d70:	d8 2a       	popm	r4-r7,pc,r12=0
80005d72:	e0 69 04 88 	mov	r9,1160
80005d76:	f2 08 0b 0c 	st.b	r9[r8],r12
80005d7a:	30 19       	mov	r9,1
80005d7c:	e0 68 04 79 	mov	r8,1145
80005d80:	b0 89       	st.b	r8[0x0],r9
80005d82:	ca ff       	rcall	80005ce0 <udi_hid_kbd_send_report>
80005d84:	e3 b7 00 00 	mtsr	0x0,r7
80005d88:	da 2a       	popm	r4-r7,pc,r12=1
80005d8a:	d7 03       	nop

80005d8c <udi_hid_kbd_up>:
80005d8c:	d4 21       	pushm	r4-r7,lr
80005d8e:	e1 b7 00 00 	mfsr	r7,0x0
80005d92:	d3 03       	ssrf	0x10
80005d94:	e0 69 04 88 	mov	r9,1160
80005d98:	30 28       	mov	r8,2
80005d9a:	2f e9       	sub	r9,-2
80005d9c:	30 8b       	mov	r11,8
80005d9e:	f0 ce ff ff 	sub	lr,r8,-1
80005da2:	13 8a       	ld.ub	r10,r9[0x0]
80005da4:	58 0a       	cp.w	r10,0
80005da6:	c2 50       	breq	80005df0 <udi_hid_kbd_up+0x64>
80005da8:	f4 0c 18 00 	cp.b	r12,r10
80005dac:	c1 00       	breq	80005dcc <udi_hid_kbd_up+0x40>
80005dae:	f1 de c0 08 	bfextu	r8,lr,0x0,0x8
80005db2:	2f f9       	sub	r9,-1
80005db4:	f6 08 18 00 	cp.b	r8,r11
80005db8:	cf 31       	brne	80005d9e <udi_hid_kbd_up+0x12>
80005dba:	c1 b8       	rjmp	80005df0 <udi_hid_kbd_up+0x64>
80005dbc:	f2 08 00 0c 	add	r12,r9,r8
80005dc0:	19 9c       	ld.ub	r12,r12[0x1]
80005dc2:	f2 08 0b 0c 	st.b	r9[r8],r12
80005dc6:	f1 db c0 08 	bfextu	r8,r11,0x0,0x8
80005dca:	c0 48       	rjmp	80005dd2 <udi_hid_kbd_up+0x46>
80005dcc:	30 6a       	mov	r10,6
80005dce:	e0 69 04 88 	mov	r9,1160
80005dd2:	f0 cb ff ff 	sub	r11,r8,-1
80005dd6:	f4 08 18 00 	cp.b	r8,r10
80005dda:	fe 98 ff f1 	brls	80005dbc <udi_hid_kbd_up+0x30>
80005dde:	e0 68 04 88 	mov	r8,1160
80005de2:	30 09       	mov	r9,0
80005de4:	b0 f9       	st.b	r8[0x7],r9
80005de6:	30 19       	mov	r9,1
80005de8:	e0 68 04 79 	mov	r8,1145
80005dec:	b0 89       	st.b	r8[0x0],r9
80005dee:	c7 9f       	rcall	80005ce0 <udi_hid_kbd_send_report>
80005df0:	e3 b7 00 00 	mtsr	0x0,r7
80005df4:	da 2a       	popm	r4-r7,pc,r12=1
80005df6:	d7 03       	nop

80005df8 <udi_hid_kbd_modifier_down>:
80005df8:	d4 21       	pushm	r4-r7,lr
80005dfa:	e1 b7 00 00 	mfsr	r7,0x0
80005dfe:	d3 03       	ssrf	0x10
80005e00:	e0 68 04 88 	mov	r8,1160
80005e04:	11 89       	ld.ub	r9,r8[0x0]
80005e06:	12 4c       	or	r12,r9
80005e08:	30 19       	mov	r9,1
80005e0a:	b0 8c       	st.b	r8[0x0],r12
80005e0c:	e0 68 04 79 	mov	r8,1145
80005e10:	b0 89       	st.b	r8[0x0],r9
80005e12:	c6 7f       	rcall	80005ce0 <udi_hid_kbd_send_report>
80005e14:	e3 b7 00 00 	mtsr	0x0,r7
80005e18:	da 2a       	popm	r4-r7,pc,r12=1
80005e1a:	d7 03       	nop

80005e1c <udi_hid_kbd_modifier_up>:
80005e1c:	d4 21       	pushm	r4-r7,lr
80005e1e:	e1 b7 00 00 	mfsr	r7,0x0
80005e22:	d3 03       	ssrf	0x10
80005e24:	e0 68 04 88 	mov	r8,1160
80005e28:	11 89       	ld.ub	r9,r8[0x0]
80005e2a:	5c dc       	com	r12
80005e2c:	12 6c       	and	r12,r9
80005e2e:	30 19       	mov	r9,1
80005e30:	b0 8c       	st.b	r8[0x0],r12
80005e32:	e0 68 04 79 	mov	r8,1145
80005e36:	b0 89       	st.b	r8[0x0],r9
80005e38:	c5 4f       	rcall	80005ce0 <udi_hid_kbd_send_report>
80005e3a:	e3 b7 00 00 	mtsr	0x0,r7
80005e3e:	da 2a       	popm	r4-r7,pc,r12=1

80005e40 <udi_hid_kbd_setup>:
80005e40:	d4 01       	pushm	lr
80005e42:	fe c9 01 9a 	sub	r9,pc,410
80005e46:	37 8a       	mov	r10,120
80005e48:	e0 6b 04 84 	mov	r11,1156
80005e4c:	e0 6c 04 90 	mov	r12,1168
80005e50:	c2 6c       	rcall	80005e9c <udi_hid_setup>
80005e52:	d8 02       	popm	pc

80005e54 <udi_hid_kbd_setreport_valid>:
80005e54:	d4 01       	pushm	lr
80005e56:	e0 68 04 85 	mov	r8,1157
80005e5a:	11 8c       	ld.ub	r12,r8[0x0]
80005e5c:	e0 a0 06 d0 	rcall	80006bfc <ui_kbd_led>
80005e60:	d8 02       	popm	pc
80005e62:	d7 03       	nop

80005e64 <udi_hid_kbd_disable>:
80005e64:	d4 01       	pushm	lr
80005e66:	e0 a0 06 b9 	rcall	80006bd8 <main_keyboard_disable>
80005e6a:	d8 02       	popm	pc

80005e6c <udi_hid_kbd_enable>:
80005e6c:	d4 01       	pushm	lr
80005e6e:	e0 69 04 90 	mov	r9,1168
80005e72:	30 08       	mov	r8,0
80005e74:	b2 88       	st.b	r9[0x0],r8
80005e76:	e0 69 04 84 	mov	r9,1156
80005e7a:	b2 88       	st.b	r9[0x0],r8
80005e7c:	e0 69 04 7a 	mov	r9,1146
80005e80:	b2 88       	st.b	r9[0x0],r8
80005e82:	e0 69 04 88 	mov	r9,1160
80005e86:	30 0a       	mov	r10,0
80005e88:	30 0b       	mov	r11,0
80005e8a:	f2 eb 00 00 	st.d	r9[0],r10
80005e8e:	e0 69 04 79 	mov	r9,1145
80005e92:	b2 88       	st.b	r9[0x0],r8
80005e94:	e0 a0 06 9c 	rcall	80006bcc <main_keyboard_enable>
80005e98:	d8 02       	popm	pc
80005e9a:	d7 03       	nop

80005e9c <udi_hid_setup>:
80005e9c:	d4 21       	pushm	r4-r7,lr
80005e9e:	e0 66 2a 48 	mov	r6,10824
80005ea2:	14 97       	mov	r7,r10
80005ea4:	30 0e       	mov	lr,0
80005ea6:	0d 8a       	ld.ub	r10,r6[0x0]
80005ea8:	14 98       	mov	r8,r10
80005eaa:	e2 18 00 60 	andl	r8,0x60,COH
80005eae:	fc 0a 18 00 	cp.b	r10,lr
80005eb2:	c4 04       	brge	80005f32 <udi_hid_setup+0x96>
80005eb4:	58 08       	cp.w	r8,0
80005eb6:	c2 b1       	brne	80005f0c <udi_hid_setup+0x70>
80005eb8:	0d 99       	ld.ub	r9,r6[0x1]
80005eba:	30 68       	mov	r8,6
80005ebc:	f0 09 18 00 	cp.b	r9,r8
80005ec0:	c5 81       	brne	80005f70 <udi_hid_setup+0xd4>
80005ec2:	e0 a0 03 b5 	rcall	8000662c <udc_get_interface_desc>
80005ec6:	32 18       	mov	r8,33
80005ec8:	2f 7c       	sub	r12,-9
80005eca:	19 99       	ld.ub	r9,r12[0x1]
80005ecc:	f0 09 18 00 	cp.b	r9,r8
80005ed0:	c5 01       	brne	80005f70 <udi_hid_setup+0xd4>
80005ed2:	0d a8       	ld.ub	r8,r6[0x2]
80005ed4:	f2 08 18 00 	cp.b	r8,r9
80005ed8:	c0 71       	brne	80005ee6 <udi_hid_setup+0x4a>
80005eda:	8d 2c       	st.w	r6[0x8],r12
80005edc:	8c b8       	ld.uh	r8,r6[0x6]
80005ede:	19 89       	ld.ub	r9,r12[0x0]
80005ee0:	f0 09 0d 48 	min	r8,r8,r9
80005ee4:	c2 38       	rjmp	80005f2a <udi_hid_setup+0x8e>
80005ee6:	19 e9       	ld.ub	r9,r12[0x6]
80005ee8:	f0 09 18 00 	cp.b	r9,r8
80005eec:	c4 21       	brne	80005f70 <udi_hid_setup+0xd4>
80005eee:	8d 27       	st.w	r6[0x8],r7
80005ef0:	19 f9       	ld.ub	r9,r12[0x7]
80005ef2:	f9 38 00 08 	ld.ub	r8,r12[8]
80005ef6:	f1 e9 10 88 	or	r8,r8,r9<<0x8
80005efa:	8c b9       	ld.uh	r9,r6[0x6]
80005efc:	f0 0a 16 08 	lsr	r10,r8,0x8
80005f00:	f5 e8 10 88 	or	r8,r10,r8<<0x8
80005f04:	5c 78       	castu.h	r8
80005f06:	f2 08 0d 48 	min	r8,r9,r8
80005f0a:	c1 08       	rjmp	80005f2a <udi_hid_setup+0x8e>
80005f0c:	e0 48 00 20 	cp.w	r8,32
80005f10:	c3 01       	brne	80005f70 <udi_hid_setup+0xd4>
80005f12:	0d 98       	ld.ub	r8,r6[0x1]
80005f14:	30 29       	mov	r9,2
80005f16:	f2 08 18 00 	cp.b	r8,r9
80005f1a:	c0 60       	breq	80005f26 <udi_hid_setup+0x8a>
80005f1c:	30 39       	mov	r9,3
80005f1e:	f2 08 18 00 	cp.b	r8,r9
80005f22:	c2 71       	brne	80005f70 <udi_hid_setup+0xd4>
80005f24:	c0 58       	rjmp	80005f2e <udi_hid_setup+0x92>
80005f26:	8d 2c       	st.w	r6[0x8],r12
80005f28:	30 18       	mov	r8,1
80005f2a:	ac 68       	st.h	r6[0xc],r8
80005f2c:	c2 18       	rjmp	80005f6e <udi_hid_setup+0xd2>
80005f2e:	8d 2b       	st.w	r6[0x8],r11
80005f30:	cf cb       	rjmp	80005f28 <udi_hid_setup+0x8c>
80005f32:	e0 48 00 20 	cp.w	r8,32
80005f36:	c1 d1       	brne	80005f70 <udi_hid_setup+0xd4>
80005f38:	0d 98       	ld.ub	r8,r6[0x1]
80005f3a:	30 9a       	mov	r10,9
80005f3c:	f4 08 18 00 	cp.b	r8,r10
80005f40:	c0 b0       	breq	80005f56 <udi_hid_setup+0xba>
80005f42:	c1 73       	brcs	80005f70 <udi_hid_setup+0xd4>
80005f44:	30 a9       	mov	r9,10
80005f46:	f2 08 18 00 	cp.b	r8,r9
80005f4a:	c0 80       	breq	80005f5a <udi_hid_setup+0xbe>
80005f4c:	30 b9       	mov	r9,11
80005f4e:	f2 08 18 00 	cp.b	r8,r9
80005f52:	c0 f1       	brne	80005f70 <udi_hid_setup+0xd4>
80005f54:	c0 68       	rjmp	80005f60 <udi_hid_setup+0xc4>
80005f56:	5d 19       	icall	r9
80005f58:	d8 22       	popm	r4-r7,pc
80005f5a:	0d a8       	ld.ub	r8,r6[0x2]
80005f5c:	b8 88       	st.b	r12[0x0],r8
80005f5e:	c0 88       	rjmp	80005f6e <udi_hid_setup+0xd2>
80005f60:	8c 39       	ld.sh	r9,r6[0x6]
80005f62:	30 08       	mov	r8,0
80005f64:	f0 09 19 00 	cp.h	r9,r8
80005f68:	c0 41       	brne	80005f70 <udi_hid_setup+0xd4>
80005f6a:	8c 18       	ld.sh	r8,r6[0x2]
80005f6c:	b6 88       	st.b	r11[0x0],r8
80005f6e:	da 2a       	popm	r4-r7,pc,r12=1
80005f70:	d8 2a       	popm	r4-r7,pc,r12=0
80005f72:	d7 03       	nop

80005f74 <udi_msc_getsetting>:
80005f74:	5e fd       	retal	0
80005f76:	d7 03       	nop

80005f78 <udi_msc_trans_ack>:
80005f78:	e0 68 2a 67 	mov	r8,10855
80005f7c:	58 0c       	cp.w	r12,0
80005f7e:	5f 19       	srne	r9
80005f80:	b0 89       	st.b	r8[0x0],r9
80005f82:	30 19       	mov	r9,1
80005f84:	e0 68 00 c8 	mov	r8,200
80005f88:	b0 89       	st.b	r8[0x0],r9
80005f8a:	5e fc       	retal	r12

80005f8c <udi_msc_trans_block>:
80005f8c:	d4 21       	pushm	r4-r7,lr
80005f8e:	e0 67 00 c8 	mov	r7,200
80005f92:	14 95       	mov	r5,r10
80005f94:	12 96       	mov	r6,r9
80005f96:	0f 88       	ld.ub	r8,r7[0x0]
80005f98:	58 08       	cp.w	r8,0
80005f9a:	c2 f0       	breq	80005ff8 <udi_msc_trans_block+0x6c>
80005f9c:	30 08       	mov	r8,0
80005f9e:	ae 88       	st.b	r7[0x0],r8
80005fa0:	fe c8 00 28 	sub	r8,pc,40
80005fa4:	58 09       	cp.w	r9,0
80005fa6:	f2 08 17 10 	movne	r8,r9
80005faa:	e0 69 00 81 	mov	r9,129
80005fae:	16 9a       	mov	r10,r11
80005fb0:	58 0c       	cp.w	r12,0
80005fb2:	f2 0c 17 10 	movne	r12,r9
80005fb6:	f9 bc 00 02 	moveq	r12,2
80005fba:	30 0b       	mov	r11,0
80005fbc:	0a 99       	mov	r9,r5
80005fbe:	fe b0 f7 63 	rcall	80004e84 <udd_ep_run>
80005fc2:	c0 41       	brne	80005fca <udi_msc_trans_block+0x3e>
80005fc4:	30 18       	mov	r8,1
80005fc6:	ae 88       	st.b	r7[0x0],r8
80005fc8:	d8 22       	popm	r4-r7,pc
80005fca:	58 06       	cp.w	r6,0
80005fcc:	c0 f1       	brne	80005fea <udi_msc_trans_block+0x5e>
80005fce:	0f 88       	ld.ub	r8,r7[0x0]
80005fd0:	58 08       	cp.w	r8,0
80005fd2:	cf e0       	breq	80005fce <udi_msc_trans_block+0x42>
80005fd4:	e0 68 2a 67 	mov	r8,10855
80005fd8:	11 89       	ld.ub	r9,r8[0x0]
80005fda:	58 09       	cp.w	r9,0
80005fdc:	c0 e1       	brne	80005ff8 <udi_msc_trans_block+0x6c>
80005fde:	11 8c       	ld.ub	r12,r8[0x0]
80005fe0:	e0 68 01 04 	mov	r8,260
80005fe4:	ec 1c 00 01 	eorl	r12,0x1
80005fe8:	c0 48       	rjmp	80005ff0 <udi_msc_trans_block+0x64>
80005fea:	e0 68 01 04 	mov	r8,260
80005fee:	30 1c       	mov	r12,1
80005ff0:	70 29       	ld.w	r9,r8[0x8]
80005ff2:	0a 19       	sub	r9,r5
80005ff4:	91 29       	st.w	r8[0x8],r9
80005ff6:	d8 22       	popm	r4-r7,pc
80005ff8:	d8 2a       	popm	r4-r7,pc,r12=0
80005ffa:	d7 03       	nop

80005ffc <udi_msc_sense_pass>:
80005ffc:	d4 21       	pushm	r4-r7,lr
80005ffe:	e0 67 04 e4 	mov	r7,1252
80006002:	31 2a       	mov	r10,18
80006004:	30 0b       	mov	r11,0
80006006:	0e 9c       	mov	r12,r7
80006008:	e0 a0 08 b2 	rcall	8000716c <memset>
8000600c:	3f 08       	mov	r8,-16
8000600e:	ae 88       	st.b	r7[0x0],r8
80006010:	30 a8       	mov	r8,10
80006012:	30 09       	mov	r9,0
80006014:	ae f8       	st.b	r7[0x7],r8
80006016:	e0 68 01 04 	mov	r8,260
8000601a:	f1 69 00 0c 	st.b	r8[12],r9
8000601e:	d8 22       	popm	r4-r7,pc

80006020 <udi_msc_csw_send>:
80006020:	d4 01       	pushm	lr
80006022:	fe c8 ff 5e 	sub	r8,pc,-162
80006026:	30 d9       	mov	r9,13
80006028:	e0 6a 01 04 	mov	r10,260
8000602c:	30 0b       	mov	r11,0
8000602e:	e0 6c 00 81 	mov	r12,129
80006032:	fe b0 f7 29 	rcall	80004e84 <udd_ep_run>
80006036:	c0 71       	brne	80006044 <udi_msc_csw_send+0x24>
80006038:	fe cb 00 18 	sub	r11,pc,24
8000603c:	e0 6c 00 81 	mov	r12,129
80006040:	fe b0 f5 ce 	rcall	80004bdc <udd_ep_wait_stall_clear>
80006044:	d8 02       	popm	pc
80006046:	d7 03       	nop

80006048 <udi_msc_csw_process>:
80006048:	d4 01       	pushm	lr
8000604a:	e0 68 01 04 	mov	r8,260
8000604e:	70 28       	ld.w	r8,r8[0x8]
80006050:	58 08       	cp.w	r8,0
80006052:	c0 f0       	breq	80006070 <udi_msc_csw_process+0x28>
80006054:	e0 68 04 9c 	mov	r8,1180
80006058:	f1 39 00 0c 	ld.ub	r9,r8[12]
8000605c:	30 08       	mov	r8,0
8000605e:	f0 09 18 00 	cp.b	r9,r8
80006062:	c0 44       	brge	8000606a <udi_msc_csw_process+0x22>
80006064:	e0 6c 00 81 	mov	r12,129
80006068:	c0 28       	rjmp	8000606c <udi_msc_csw_process+0x24>
8000606a:	30 2c       	mov	r12,2
8000606c:	fe b0 f5 04 	rcall	80004a74 <udd_ep_set_halt>
80006070:	e0 69 04 9c 	mov	r9,1180
80006074:	72 19       	ld.w	r9,r9[0x4]
80006076:	e0 68 01 04 	mov	r8,260
8000607a:	91 19       	st.w	r8[0x4],r9
8000607c:	f1 d9 80 02 	ldswp.w	r9,r8[8]
80006080:	91 29       	st.w	r8[0x8],r9
80006082:	cc ff       	rcall	80006020 <udi_msc_csw_send>
80006084:	d8 02       	popm	pc
80006086:	d7 03       	nop

80006088 <udi_msc_data_sent>:
80006088:	d4 21       	pushm	r4-r7,lr
8000608a:	16 97       	mov	r7,r11
8000608c:	58 0c       	cp.w	r12,0
8000608e:	c0 81       	brne	8000609e <udi_msc_data_sent+0x16>
80006090:	cb 6f       	rcall	80005ffc <udi_msc_sense_pass>
80006092:	e0 68 01 04 	mov	r8,260
80006096:	70 29       	ld.w	r9,r8[0x8]
80006098:	0e 19       	sub	r9,r7
8000609a:	91 29       	st.w	r8[0x8],r9
8000609c:	cd 6f       	rcall	80006048 <udi_msc_csw_process>
8000609e:	d8 22       	popm	r4-r7,pc

800060a0 <udi_msc_cbw_wait>:
800060a0:	d4 01       	pushm	lr
800060a2:	fe c8 fd 1e 	sub	r8,pc,-738
800060a6:	31 f9       	mov	r9,31
800060a8:	e0 6a 04 9c 	mov	r10,1180
800060ac:	30 1b       	mov	r11,1
800060ae:	30 2c       	mov	r12,2
800060b0:	fe b0 f6 ea 	rcall	80004e84 <udd_ep_run>
800060b4:	c0 61       	brne	800060c0 <udi_msc_cbw_wait+0x20>
800060b6:	fe cb 00 16 	sub	r11,pc,22
800060ba:	30 2c       	mov	r12,2
800060bc:	fe b0 f5 90 	rcall	80004bdc <udd_ep_wait_stall_clear>
800060c0:	d8 02       	popm	pc
800060c2:	d7 03       	nop

800060c4 <udi_msc_csw_sent>:
800060c4:	d4 01       	pushm	lr
800060c6:	ce df       	rcall	800060a0 <udi_msc_cbw_wait>
800060c8:	d8 02       	popm	pc
800060ca:	d7 03       	nop

800060cc <udi_msc_cbw_invalid>:
800060cc:	d4 01       	pushm	lr
800060ce:	e0 68 04 d0 	mov	r8,1232
800060d2:	11 89       	ld.ub	r9,r8[0x0]
800060d4:	30 08       	mov	r8,0
800060d6:	f0 09 18 00 	cp.b	r9,r8
800060da:	c0 90       	breq	800060ec <udi_msc_cbw_invalid+0x20>
800060dc:	30 2c       	mov	r12,2
800060de:	fe b0 f4 cb 	rcall	80004a74 <udd_ep_set_halt>
800060e2:	fe cb 00 16 	sub	r11,pc,22
800060e6:	30 2c       	mov	r12,2
800060e8:	fe b0 f5 7a 	rcall	80004bdc <udd_ep_wait_stall_clear>
800060ec:	d8 02       	popm	pc
800060ee:	d7 03       	nop

800060f0 <udi_msc_csw_invalid>:
800060f0:	d4 01       	pushm	lr
800060f2:	e0 68 04 d0 	mov	r8,1232
800060f6:	11 89       	ld.ub	r9,r8[0x0]
800060f8:	30 08       	mov	r8,0
800060fa:	f0 09 18 00 	cp.b	r9,r8
800060fe:	c0 b0       	breq	80006114 <udi_msc_csw_invalid+0x24>
80006100:	e0 6c 00 81 	mov	r12,129
80006104:	fe b0 f4 b8 	rcall	80004a74 <udd_ep_set_halt>
80006108:	fe cb 00 18 	sub	r11,pc,24
8000610c:	e0 6c 00 81 	mov	r12,129
80006110:	fe b0 f5 66 	rcall	80004bdc <udd_ep_wait_stall_clear>
80006114:	d8 02       	popm	pc
80006116:	d7 03       	nop

80006118 <udi_msc_setup>:
80006118:	d4 01       	pushm	lr
8000611a:	e0 68 2a 48 	mov	r8,10824
8000611e:	30 0b       	mov	r11,0
80006120:	11 8a       	ld.ub	r10,r8[0x0]
80006122:	14 99       	mov	r9,r10
80006124:	e2 19 00 60 	andl	r9,0x60,COH
80006128:	f6 0a 18 00 	cp.b	r10,r11
8000612c:	c1 84       	brge	8000615c <udi_msc_setup+0x44>
8000612e:	e0 49 00 20 	cp.w	r9,32
80006132:	c3 51       	brne	8000619c <udi_msc_setup+0x84>
80006134:	11 9a       	ld.ub	r10,r8[0x1]
80006136:	3f e9       	mov	r9,-2
80006138:	f2 0a 18 00 	cp.b	r10,r9
8000613c:	c3 01       	brne	8000619c <udi_msc_setup+0x84>
8000613e:	90 39       	ld.sh	r9,r8[0x6]
80006140:	30 1a       	mov	r10,1
80006142:	f4 09 19 00 	cp.h	r9,r10
80006146:	c2 b1       	brne	8000619c <udi_msc_setup+0x84>
80006148:	90 1b       	ld.sh	r11,r8[0x2]
8000614a:	30 0a       	mov	r10,0
8000614c:	f4 0b 19 00 	cp.h	r11,r10
80006150:	c2 61       	brne	8000619c <udi_msc_setup+0x84>
80006152:	b0 69       	st.h	r8[0xc],r9
80006154:	e0 69 04 94 	mov	r9,1172
80006158:	91 29       	st.w	r8[0x8],r9
8000615a:	c2 08       	rjmp	8000619a <udi_msc_setup+0x82>
8000615c:	e0 49 00 20 	cp.w	r9,32
80006160:	c1 e1       	brne	8000619c <udi_msc_setup+0x84>
80006162:	11 9a       	ld.ub	r10,r8[0x1]
80006164:	3f f9       	mov	r9,-1
80006166:	f2 0a 18 00 	cp.b	r10,r9
8000616a:	c1 91       	brne	8000619c <udi_msc_setup+0x84>
8000616c:	90 39       	ld.sh	r9,r8[0x6]
8000616e:	30 0a       	mov	r10,0
80006170:	f4 09 19 00 	cp.h	r9,r10
80006174:	c1 41       	brne	8000619c <udi_msc_setup+0x84>
80006176:	90 18       	ld.sh	r8,r8[0x2]
80006178:	f2 08 19 00 	cp.h	r8,r9
8000617c:	c1 01       	brne	8000619c <udi_msc_setup+0x84>
8000617e:	e0 69 04 d0 	mov	r9,1232
80006182:	b2 88       	st.b	r9[0x0],r8
80006184:	e0 69 04 98 	mov	r9,1176
80006188:	30 2c       	mov	r12,2
8000618a:	b2 88       	st.b	r9[0x0],r8
8000618c:	fe b0 f5 78 	rcall	80004c7c <udd_ep_abort>
80006190:	e0 6c 00 81 	mov	r12,129
80006194:	fe b0 f5 74 	rcall	80004c7c <udd_ep_abort>
80006198:	c8 4f       	rcall	800060a0 <udi_msc_cbw_wait>
8000619a:	da 0a       	popm	pc,r12=1
8000619c:	d8 0a       	popm	pc,r12=0
8000619e:	d7 03       	nop

800061a0 <udi_msc_disable>:
800061a0:	d4 01       	pushm	lr
800061a2:	30 09       	mov	r9,0
800061a4:	e0 68 04 98 	mov	r8,1176
800061a8:	b0 89       	st.b	r8[0x0],r9
800061aa:	e0 a0 05 23 	rcall	80006bf0 <main_msc_disable>
800061ae:	d8 02       	popm	pc

800061b0 <udi_msc_enable>:
800061b0:	d4 01       	pushm	lr
800061b2:	e0 69 04 98 	mov	r9,1176
800061b6:	30 08       	mov	r8,0
800061b8:	b2 88       	st.b	r9[0x0],r8
800061ba:	e0 69 04 d0 	mov	r9,1232
800061be:	b2 88       	st.b	r9[0x0],r8
800061c0:	fe b0 fc a6 	rcall	80005b0c <get_nb_lun>
800061c4:	e0 68 04 94 	mov	r8,1172
800061c8:	b0 8c       	st.b	r8[0x0],r12
800061ca:	58 0c       	cp.w	r12,0
800061cc:	c0 80       	breq	800061dc <udi_msc_enable+0x2c>
800061ce:	20 1c       	sub	r12,1
800061d0:	b0 8c       	st.b	r8[0x0],r12
800061d2:	e0 a0 05 09 	rcall	80006be4 <main_msc_enable>
800061d6:	c0 30       	breq	800061dc <udi_msc_enable+0x2c>
800061d8:	c6 4f       	rcall	800060a0 <udi_msc_cbw_wait>
800061da:	da 0a       	popm	pc,r12=1
800061dc:	d8 0a       	popm	pc,r12=0
800061de:	d7 03       	nop

800061e0 <T.62>:
800061e0:	d4 21       	pushm	r4-r7,lr
800061e2:	e0 67 04 e4 	mov	r7,1252
800061e6:	16 96       	mov	r6,r11
800061e8:	18 95       	mov	r5,r12
800061ea:	31 2a       	mov	r10,18
800061ec:	30 0b       	mov	r11,0
800061ee:	0e 9c       	mov	r12,r7
800061f0:	e0 a0 07 be 	rcall	8000716c <memset>
800061f4:	3f 08       	mov	r8,-16
800061f6:	ae 88       	st.b	r7[0x0],r8
800061f8:	30 a8       	mov	r8,10
800061fa:	ef 66 00 0d 	st.b	r7[13],r6
800061fe:	ae f8       	st.b	r7[0x7],r8
80006200:	30 19       	mov	r9,1
80006202:	e0 68 01 04 	mov	r8,260
80006206:	ed d6 c1 08 	bfextu	r6,r6,0x8,0x8
8000620a:	ae a5       	st.b	r7[0x2],r5
8000620c:	f1 69 00 0c 	st.b	r8[12],r9
80006210:	ef 66 00 0c 	st.b	r7[12],r6
80006214:	d8 22       	popm	r4-r7,pc
80006216:	d7 03       	nop

80006218 <udi_msc_data_send>:
80006218:	d4 01       	pushm	lr
8000621a:	16 99       	mov	r9,r11
8000621c:	30 1b       	mov	r11,1
8000621e:	18 9a       	mov	r10,r12
80006220:	fe c8 01 98 	sub	r8,pc,408
80006224:	e0 6c 00 81 	mov	r12,129
80006228:	fe b0 f6 2e 	rcall	80004e84 <udd_ep_run>
8000622c:	18 9b       	mov	r11,r12
8000622e:	c0 41       	brne	80006236 <udi_msc_data_send+0x1e>
80006230:	30 4c       	mov	r12,4
80006232:	cd 7f       	rcall	800061e0 <T.62>
80006234:	c0 af       	rcall	80006048 <udi_msc_csw_process>
80006236:	d8 02       	popm	pc

80006238 <udi_msc_cbw_validate>:
80006238:	d4 01       	pushm	lr
8000623a:	e0 68 04 9c 	mov	r8,1180
8000623e:	30 09       	mov	r9,0
80006240:	f1 38 00 0c 	ld.ub	r8,r8[12]
80006244:	f7 e8 20 08 	eor	r8,r11,r8
80006248:	f2 08 18 00 	cp.b	r8,r9
8000624c:	c0 75       	brlt	8000625a <udi_msc_cbw_validate+0x22>
8000624e:	e0 68 01 04 	mov	r8,260
80006252:	70 28       	ld.w	r8,r8[0x8]
80006254:	18 38       	cp.w	r8,r12
80006256:	c0 23       	brcs	8000625a <udi_msc_cbw_validate+0x22>
80006258:	da 0a       	popm	pc,r12=1
8000625a:	e0 6b 24 00 	mov	r11,9216
8000625e:	30 5c       	mov	r12,5
80006260:	cc 0f       	rcall	800061e0 <T.62>
80006262:	cf 3e       	rcall	80006048 <udi_msc_csw_process>
80006264:	d8 0a       	popm	pc,r12=0
80006266:	d7 03       	nop

80006268 <udi_msc_spc_mode_sense>:
80006268:	d4 21       	pushm	r4-r7,lr
8000626a:	e0 67 04 bc 	mov	r7,1212
8000626e:	18 96       	mov	r6,r12
80006270:	31 4a       	mov	r10,20
80006272:	30 0b       	mov	r11,0
80006274:	0e 9c       	mov	r12,r7
80006276:	e0 a0 07 7b 	rcall	8000716c <memset>
8000627a:	e0 68 04 9c 	mov	r8,1180
8000627e:	58 06       	cp.w	r6,0
80006280:	c0 60       	breq	8000628c <udi_msc_spc_mode_sense+0x24>
80006282:	f1 38 00 17 	ld.ub	r8,r8[23]
80006286:	2f 87       	sub	r7,-8
80006288:	30 85       	mov	r5,8
8000628a:	c0 58       	rjmp	80006294 <udi_msc_spc_mode_sense+0x2c>
8000628c:	f1 38 00 13 	ld.ub	r8,r8[19]
80006290:	2f c7       	sub	r7,-4
80006292:	30 45       	mov	r5,4
80006294:	e0 69 04 9c 	mov	r9,1180
80006298:	f3 3a 00 11 	ld.ub	r10,r9[17]
8000629c:	33 f9       	mov	r9,63
8000629e:	f5 da c0 06 	bfextu	r10,r10,0x0,0x6
800062a2:	f2 0a 18 00 	cp.b	r10,r9
800062a6:	5f 0b       	sreq	r11
800062a8:	31 c9       	mov	r9,28
800062aa:	f2 0a 18 00 	cp.b	r10,r9
800062ae:	5f 0a       	sreq	r10
800062b0:	f7 ea 10 0a 	or	r10,r11,r10
800062b4:	c0 80       	breq	800062c4 <udi_msc_spc_mode_sense+0x5c>
800062b6:	ae 89       	st.b	r7[0x0],r9
800062b8:	30 a9       	mov	r9,10
800062ba:	2f 45       	sub	r5,-12
800062bc:	ae 99       	st.b	r7[0x1],r9
800062be:	5c 55       	castu.b	r5
800062c0:	30 59       	mov	r9,5
800062c2:	ae b9       	st.b	r7[0x3],r9
800062c4:	ea 08 18 00 	cp.b	r8,r5
800062c8:	ea 08 17 20 	movhs	r8,r5
800062cc:	e0 6b 00 80 	mov	r11,128
800062d0:	ef d8 c0 08 	bfextu	r7,r8,0x0,0x8
800062d4:	0e 9c       	mov	r12,r7
800062d6:	cb 1f       	rcall	80006238 <udi_msc_cbw_validate>
800062d8:	c1 b0       	breq	8000630e <udi_msc_spc_mode_sense+0xa6>
800062da:	e0 68 04 9c 	mov	r8,1180
800062de:	f1 3c 00 0d 	ld.ub	r12,r8[13]
800062e2:	fe b0 fc 2f 	rcall	80005b40 <mem_wr_protect>
800062e6:	e0 68 00 80 	mov	r8,128
800062ea:	e0 69 04 bc 	mov	r9,1212
800062ee:	58 0c       	cp.w	r12,0
800062f0:	f9 b8 00 00 	moveq	r8,0
800062f4:	58 06       	cp.w	r6,0
800062f6:	c0 50       	breq	80006300 <udi_msc_spc_mode_sense+0x98>
800062f8:	20 25       	sub	r5,2
800062fa:	b2 b8       	st.b	r9[0x3],r8
800062fc:	b2 05       	st.h	r9[0x0],r5
800062fe:	c0 48       	rjmp	80006306 <udi_msc_spc_mode_sense+0x9e>
80006300:	20 15       	sub	r5,1
80006302:	b2 a8       	st.b	r9[0x2],r8
80006304:	b2 85       	st.b	r9[0x0],r5
80006306:	0e 9b       	mov	r11,r7
80006308:	e0 6c 04 bc 	mov	r12,1212
8000630c:	c8 6f       	rcall	80006218 <udi_msc_data_send>
8000630e:	d8 22       	popm	r4-r7,pc

80006310 <udi_msc_sbc_trans>:
80006310:	d4 21       	pushm	r4-r7,lr
80006312:	18 97       	mov	r7,r12
80006314:	58 0c       	cp.w	r12,0
80006316:	c0 e1       	brne	80006332 <udi_msc_sbc_trans+0x22>
80006318:	e0 68 04 9c 	mov	r8,1180
8000631c:	f1 3c 00 0d 	ld.ub	r12,r8[13]
80006320:	fe b0 fc 10 	rcall	80005b40 <mem_wr_protect>
80006324:	c0 70       	breq	80006332 <udi_msc_sbc_trans+0x22>
80006326:	e0 6b 27 00 	mov	r11,9984
8000632a:	30 7c       	mov	r12,7
8000632c:	c5 af       	rcall	800061e0 <T.62>
8000632e:	c8 de       	rcall	80006048 <udi_msc_csw_process>
80006330:	d8 22       	popm	r4-r7,pc
80006332:	e0 68 04 9c 	mov	r8,1180
80006336:	f1 3b 00 17 	ld.ub	r11,r8[23]
8000633a:	e0 6a 04 dc 	mov	r10,1244
8000633e:	b4 9b       	st.b	r10[0x1],r11
80006340:	f1 3b 00 11 	ld.ub	r11,r8[17]
80006344:	e0 69 04 e0 	mov	r9,1248
80006348:	b2 8b       	st.b	r9[0x0],r11
8000634a:	f1 3b 00 12 	ld.ub	r11,r8[18]
8000634e:	b2 9b       	st.b	r9[0x1],r11
80006350:	f1 3b 00 13 	ld.ub	r11,r8[19]
80006354:	b2 ab       	st.b	r9[0x2],r11
80006356:	f1 3b 00 14 	ld.ub	r11,r8[20]
8000635a:	b2 bb       	st.b	r9[0x3],r11
8000635c:	f1 38 00 16 	ld.ub	r8,r8[22]
80006360:	e0 6b 00 80 	mov	r11,128
80006364:	b4 88       	st.b	r10[0x0],r8
80006366:	58 07       	cp.w	r7,0
80006368:	f9 bb 00 00 	moveq	r11,0
8000636c:	94 8c       	ld.uh	r12,r10[0x0]
8000636e:	a9 7c       	lsl	r12,0x9
80006370:	c6 4f       	rcall	80006238 <udi_msc_cbw_validate>
80006372:	c0 80       	breq	80006382 <udi_msc_sbc_trans+0x72>
80006374:	e0 68 04 f8 	mov	r8,1272
80006378:	30 19       	mov	r9,1
8000637a:	b0 87       	st.b	r8[0x0],r7
8000637c:	e0 68 04 98 	mov	r8,1176
80006380:	b0 89       	st.b	r8[0x0],r9
80006382:	d8 22       	popm	r4-r7,pc

80006384 <udi_msc_cbw_received>:
80006384:	d4 21       	pushm	r4-r7,lr
80006386:	58 0c       	cp.w	r12,0
80006388:	e0 81 01 16 	brne	800065b4 <udi_msc_cbw_received+0x230>
8000638c:	59 fb       	cp.w	r11,31
8000638e:	c0 a1       	brne	800063a2 <udi_msc_cbw_received+0x1e>
80006390:	e0 66 04 9c 	mov	r6,1180
80006394:	e0 6a 42 43 	mov	r10,16963
80006398:	ea 1a 55 53 	orh	r10,0x5553
8000639c:	6c 08       	ld.w	r8,r6[0x0]
8000639e:	14 38       	cp.w	r8,r10
800063a0:	c0 80       	breq	800063b0 <udi_msc_cbw_received+0x2c>
800063a2:	30 19       	mov	r9,1
800063a4:	e0 68 04 d0 	mov	r8,1232
800063a8:	b0 89       	st.b	r8[0x0],r9
800063aa:	c9 1e       	rcall	800060cc <udi_msc_cbw_invalid>
800063ac:	ca 2e       	rcall	800060f0 <udi_msc_csw_invalid>
800063ae:	d8 22       	popm	r4-r7,pc
800063b0:	ed 38 00 0d 	ld.ub	r8,r6[13]
800063b4:	f1 d8 c0 04 	bfextu	r8,r8,0x0,0x4
800063b8:	ed 68 00 0d 	st.b	r6[13],r8
800063bc:	e0 6a 04 94 	mov	r10,1172
800063c0:	15 8a       	ld.ub	r10,r10[0x0]
800063c2:	f0 0a 18 00 	cp.b	r10,r8
800063c6:	c7 13       	brcs	800064a8 <udi_msc_cbw_received+0x124>
800063c8:	ed da 80 02 	ldswp.w	r10,r6[8]
800063cc:	e0 68 01 04 	mov	r8,260
800063d0:	91 2a       	st.w	r8[0x8],r10
800063d2:	ed 38 00 0f 	ld.ub	r8,r6[15]
800063d6:	31 ea       	mov	r10,30
800063d8:	f4 08 18 00 	cp.b	r8,r10
800063dc:	e0 80 00 de 	breq	80006598 <udi_msc_cbw_received+0x214>
800063e0:	e0 8b 00 1d 	brhi	8000641a <udi_msc_cbw_received+0x96>
800063e4:	31 2a       	mov	r10,18
800063e6:	f4 08 18 00 	cp.b	r8,r10
800063ea:	c4 80       	breq	8000647a <udi_msc_cbw_received+0xf6>
800063ec:	e0 8b 00 0c 	brhi	80006404 <udi_msc_cbw_received+0x80>
800063f0:	f8 08 18 00 	cp.b	r8,r12
800063f4:	e0 80 00 9c 	breq	8000652c <udi_msc_cbw_received+0x1a8>
800063f8:	30 39       	mov	r9,3
800063fa:	f2 08 18 00 	cp.b	r8,r9
800063fe:	e0 81 00 d5 	brne	800065a8 <udi_msc_cbw_received+0x224>
80006402:	c2 98       	rjmp	80006454 <udi_msc_cbw_received+0xd0>
80006404:	31 a9       	mov	r9,26
80006406:	f2 08 18 00 	cp.b	r8,r9
8000640a:	e0 80 00 8f 	breq	80006528 <udi_msc_cbw_received+0x1a4>
8000640e:	31 b9       	mov	r9,27
80006410:	f2 08 18 00 	cp.b	r8,r9
80006414:	e0 81 00 ca 	brne	800065a8 <udi_msc_cbw_received+0x224>
80006418:	cc 08       	rjmp	80006598 <udi_msc_cbw_received+0x214>
8000641a:	32 a9       	mov	r9,42
8000641c:	f2 08 18 00 	cp.b	r8,r9
80006420:	e0 80 00 c2 	breq	800065a4 <udi_msc_cbw_received+0x220>
80006424:	e0 8b 00 0d 	brhi	8000643e <udi_msc_cbw_received+0xba>
80006428:	32 59       	mov	r9,37
8000642a:	f2 08 18 00 	cp.b	r8,r9
8000642e:	e0 80 00 8f 	breq	8000654c <udi_msc_cbw_received+0x1c8>
80006432:	32 89       	mov	r9,40
80006434:	f2 08 18 00 	cp.b	r8,r9
80006438:	e0 81 00 b8 	brne	800065a8 <udi_msc_cbw_received+0x224>
8000643c:	cb 38       	rjmp	800065a2 <udi_msc_cbw_received+0x21e>
8000643e:	32 f9       	mov	r9,47
80006440:	f2 08 18 00 	cp.b	r8,r9
80006444:	e0 80 00 aa 	breq	80006598 <udi_msc_cbw_received+0x214>
80006448:	35 a9       	mov	r9,90
8000644a:	f2 08 18 00 	cp.b	r8,r9
8000644e:	e0 81 00 ad 	brne	800065a8 <udi_msc_cbw_received+0x224>
80006452:	c6 a8       	rjmp	80006526 <udi_msc_cbw_received+0x1a2>
80006454:	e0 68 04 9c 	mov	r8,1180
80006458:	f1 37 00 13 	ld.ub	r7,r8[19]
8000645c:	31 28       	mov	r8,18
8000645e:	e0 6b 00 80 	mov	r11,128
80006462:	ee 08 18 00 	cp.b	r8,r7
80006466:	f9 b7 03 12 	movlo	r7,18
8000646a:	0e 9c       	mov	r12,r7
8000646c:	ce 6e       	rcall	80006238 <udi_msc_cbw_validate>
8000646e:	e0 80 00 a3 	breq	800065b4 <udi_msc_cbw_received+0x230>
80006472:	0e 9b       	mov	r11,r7
80006474:	e0 6c 04 e4 	mov	r12,1252
80006478:	c8 e8       	rjmp	80006594 <udi_msc_cbw_received+0x210>
8000647a:	32 48       	mov	r8,36
8000647c:	ed 37 00 13 	ld.ub	r7,r6[19]
80006480:	e0 6b 00 80 	mov	r11,128
80006484:	ee 08 18 00 	cp.b	r8,r7
80006488:	f9 b7 03 24 	movlo	r7,36
8000648c:	0e 9c       	mov	r12,r7
8000648e:	cd 5e       	rcall	80006238 <udi_msc_cbw_validate>
80006490:	e0 80 00 92 	breq	800065b4 <udi_msc_cbw_received+0x230>
80006494:	ed 38 00 10 	ld.ub	r8,r6[16]
80006498:	f1 d8 c0 02 	bfextu	r8,r8,0x0,0x2
8000649c:	c0 61       	brne	800064a8 <udi_msc_cbw_received+0x124>
8000649e:	ed 39 00 11 	ld.ub	r9,r6[17]
800064a2:	f0 09 18 00 	cp.b	r9,r8
800064a6:	c0 50       	breq	800064b0 <udi_msc_cbw_received+0x12c>
800064a8:	e0 6b 24 00 	mov	r11,9216
800064ac:	30 5c       	mov	r12,5
800064ae:	c4 d8       	rjmp	80006548 <udi_msc_cbw_received+0x1c4>
800064b0:	e0 68 04 9c 	mov	r8,1180
800064b4:	f1 3c 00 0d 	ld.ub	r12,r8[13]
800064b8:	fe b0 fb 4e 	rcall	80005b54 <mem_name>
800064bc:	e0 66 00 e0 	mov	r6,224
800064c0:	f8 cb ff ff 	sub	r11,r12,-1
800064c4:	2f 06       	sub	r6,-16
800064c6:	31 0a       	mov	r10,16
800064c8:	0c 9c       	mov	r12,r6
800064ca:	e0 a0 05 ad 	rcall	80007024 <memcpy>
800064ce:	30 08       	mov	r8,0
800064d0:	32 2c       	mov	r12,34
800064d2:	10 99       	mov	r9,r8
800064d4:	31 0b       	mov	r11,16
800064d6:	0d 8a       	ld.ub	r10,r6[0x0]
800064d8:	f0 ce ff ff 	sub	lr,r8,-1
800064dc:	f2 0a 18 00 	cp.b	r10,r9
800064e0:	5f 05       	sreq	r5
800064e2:	f8 0a 18 00 	cp.b	r10,r12
800064e6:	5f 0a       	sreq	r10
800064e8:	0a 4a       	or	r10,r5
800064ea:	f2 0a 18 00 	cp.b	r10,r9
800064ee:	c1 11       	brne	80006510 <udi_msc_cbw_received+0x18c>
800064f0:	f1 de c0 08 	bfextu	r8,lr,0x0,0x8
800064f4:	2f f6       	sub	r6,-1
800064f6:	f6 08 18 00 	cp.b	r8,r11
800064fa:	ce e1       	brne	800064d6 <udi_msc_cbw_received+0x152>
800064fc:	c0 a8       	rjmp	80006510 <udi_msc_cbw_received+0x18c>
800064fe:	f0 cc ff ff 	sub	r12,r8,-1
80006502:	f4 08 00 08 	add	r8,r10,r8
80006506:	f1 69 00 10 	st.b	r8[16],r9
8000650a:	f1 dc c0 08 	bfextu	r8,r12,0x0,0x8
8000650e:	c0 58       	rjmp	80006518 <udi_msc_cbw_received+0x194>
80006510:	31 0b       	mov	r11,16
80006512:	e0 6a 00 e0 	mov	r10,224
80006516:	32 09       	mov	r9,32
80006518:	f6 08 18 00 	cp.b	r8,r11
8000651c:	cf 11       	brne	800064fe <udi_msc_cbw_received+0x17a>
8000651e:	0e 9b       	mov	r11,r7
80006520:	e0 6c 00 e0 	mov	r12,224
80006524:	c3 88       	rjmp	80006594 <udi_msc_cbw_received+0x210>
80006526:	30 1c       	mov	r12,1
80006528:	ca 0e       	rcall	80006268 <udi_msc_spc_mode_sense>
8000652a:	d8 22       	popm	r4-r7,pc
8000652c:	ed 3c 00 0d 	ld.ub	r12,r6[13]
80006530:	fe b0 fa f0 	rcall	80005b10 <mem_test_unit_ready>
80006534:	58 2c       	cp.w	r12,2
80006536:	c0 60       	breq	80006542 <udi_msc_cbw_received+0x1be>
80006538:	58 3c       	cp.w	r12,3
8000653a:	c1 e0       	breq	80006576 <udi_msc_cbw_received+0x1f2>
8000653c:	58 0c       	cp.w	r12,0
8000653e:	c2 d0       	breq	80006598 <udi_msc_cbw_received+0x214>
80006540:	c2 28       	rjmp	80006584 <udi_msc_cbw_received+0x200>
80006542:	e0 6b 3a 00 	mov	r11,14848
80006546:	30 2c       	mov	r12,2
80006548:	c4 ce       	rcall	800061e0 <T.62>
8000654a:	c2 98       	rjmp	8000659c <udi_msc_cbw_received+0x218>
8000654c:	e0 6b 00 80 	mov	r11,128
80006550:	30 8c       	mov	r12,8
80006552:	c7 3e       	rcall	80006238 <udi_msc_cbw_validate>
80006554:	c3 00       	breq	800065b4 <udi_msc_cbw_received+0x230>
80006556:	e0 68 04 9c 	mov	r8,1180
8000655a:	e0 67 04 d4 	mov	r7,1236
8000655e:	f1 3c 00 0d 	ld.ub	r12,r8[13]
80006562:	0e 9b       	mov	r11,r7
80006564:	fe b0 fa e0 	rcall	80005b24 <mem_read_capacity>
80006568:	58 2c       	cp.w	r12,2
8000656a:	c0 a0       	breq	8000657e <udi_msc_cbw_received+0x1fa>
8000656c:	58 3c       	cp.w	r12,3
8000656e:	c0 40       	breq	80006576 <udi_msc_cbw_received+0x1f2>
80006570:	58 0c       	cp.w	r12,0
80006572:	c0 c0       	breq	8000658a <udi_msc_cbw_received+0x206>
80006574:	c0 88       	rjmp	80006584 <udi_msc_cbw_received+0x200>
80006576:	e0 6b 28 00 	mov	r11,10240
8000657a:	30 6c       	mov	r12,6
8000657c:	ce 6b       	rjmp	80006548 <udi_msc_cbw_received+0x1c4>
8000657e:	e0 6b 3a 00 	mov	r11,14848
80006582:	ce 3b       	rjmp	80006548 <udi_msc_cbw_received+0x1c4>
80006584:	30 0b       	mov	r11,0
80006586:	30 4c       	mov	r12,4
80006588:	ce 0b       	rjmp	80006548 <udi_msc_cbw_received+0x1c4>
8000658a:	e0 68 02 00 	mov	r8,512
8000658e:	0e 9c       	mov	r12,r7
80006590:	8f 18       	st.w	r7[0x4],r8
80006592:	30 8b       	mov	r11,8
80006594:	c4 2e       	rcall	80006218 <udi_msc_data_send>
80006596:	d8 22       	popm	r4-r7,pc
80006598:	fe b0 fd 32 	rcall	80005ffc <udi_msc_sense_pass>
8000659c:	fe b0 fd 56 	rcall	80006048 <udi_msc_csw_process>
800065a0:	d8 22       	popm	r4-r7,pc
800065a2:	30 1c       	mov	r12,1
800065a4:	cb 6e       	rcall	80006310 <udi_msc_sbc_trans>
800065a6:	d8 22       	popm	r4-r7,pc
800065a8:	e0 6b 20 00 	mov	r11,8192
800065ac:	30 5c       	mov	r12,5
800065ae:	c1 9e       	rcall	800061e0 <T.62>
800065b0:	fe b0 fd 4c 	rcall	80006048 <udi_msc_csw_process>
800065b4:	d8 22       	popm	r4-r7,pc
800065b6:	d7 03       	nop

800065b8 <udi_msc_process_trans>:
800065b8:	d4 01       	pushm	lr
800065ba:	e0 68 04 98 	mov	r8,1176
800065be:	30 0a       	mov	r10,0
800065c0:	11 89       	ld.ub	r9,r8[0x0]
800065c2:	f4 09 18 00 	cp.b	r9,r10
800065c6:	c0 21       	brne	800065ca <udi_msc_process_trans+0x12>
800065c8:	d8 0a       	popm	pc,r12=0
800065ca:	b0 8a       	st.b	r8[0x0],r10
800065cc:	e0 68 04 f8 	mov	r8,1272
800065d0:	e0 6b 04 dc 	mov	r11,1244
800065d4:	11 8c       	ld.ub	r12,r8[0x0]
800065d6:	e0 69 04 e0 	mov	r9,1248
800065da:	e0 68 04 9c 	mov	r8,1180
800065de:	f4 0c 18 00 	cp.b	r12,r10
800065e2:	c0 80       	breq	800065f2 <udi_msc_process_trans+0x3a>
800065e4:	96 8a       	ld.uh	r10,r11[0x0]
800065e6:	f1 3c 00 0d 	ld.ub	r12,r8[13]
800065ea:	72 0b       	ld.w	r11,r9[0x0]
800065ec:	fe b0 fa fe 	rcall	80005be8 <memory_2_usb>
800065f0:	c0 78       	rjmp	800065fe <udi_msc_process_trans+0x46>
800065f2:	96 8a       	ld.uh	r10,r11[0x0]
800065f4:	f1 3c 00 0d 	ld.ub	r12,r8[13]
800065f8:	72 0b       	ld.w	r11,r9[0x0]
800065fa:	fe b0 fa cb 	rcall	80005b90 <usb_2_memory>
800065fe:	58 2c       	cp.w	r12,2
80006600:	c0 c0       	breq	80006618 <udi_msc_process_trans+0x60>
80006602:	58 3c       	cp.w	r12,3
80006604:	c0 60       	breq	80006610 <udi_msc_process_trans+0x58>
80006606:	58 0c       	cp.w	r12,0
80006608:	c0 b1       	brne	8000661e <udi_msc_process_trans+0x66>
8000660a:	fe b0 fc f9 	rcall	80005ffc <udi_msc_sense_pass>
8000660e:	c0 c8       	rjmp	80006626 <udi_msc_process_trans+0x6e>
80006610:	e0 6b 28 00 	mov	r11,10240
80006614:	30 6c       	mov	r12,6
80006616:	c0 68       	rjmp	80006622 <udi_msc_process_trans+0x6a>
80006618:	e0 6b 3a 00 	mov	r11,14848
8000661c:	c0 38       	rjmp	80006622 <udi_msc_process_trans+0x6a>
8000661e:	30 0b       	mov	r11,0
80006620:	30 4c       	mov	r12,4
80006622:	fe b0 fd df 	rcall	800061e0 <T.62>
80006626:	fe b0 fd 11 	rcall	80006048 <udi_msc_csw_process>
8000662a:	da 0a       	popm	pc,r12=1

8000662c <udc_get_interface_desc>:
8000662c:	e0 68 05 08 	mov	r8,1288
80006630:	70 0c       	ld.w	r12,r8[0x0]
80006632:	5e fc       	retal	r12

80006634 <udc_update_iface_desc>:
80006634:	d4 01       	pushm	lr
80006636:	e0 68 05 04 	mov	r8,1284
8000663a:	11 89       	ld.ub	r9,r8[0x0]
8000663c:	30 08       	mov	r8,0
8000663e:	f0 09 18 00 	cp.b	r9,r8
80006642:	c3 50       	breq	800066ac <udc_update_iface_desc+0x78>
80006644:	e0 68 04 fc 	mov	r8,1276
80006648:	70 08       	ld.w	r8,r8[0x0]
8000664a:	70 08       	ld.w	r8,r8[0x0]
8000664c:	11 c9       	ld.ub	r9,r8[0x4]
8000664e:	f8 09 18 00 	cp.b	r9,r12
80006652:	e0 88 00 2d 	brls	800066ac <udc_update_iface_desc+0x78>
80006656:	e0 69 05 08 	mov	r9,1288
8000665a:	93 08       	st.w	r9[0x0],r8
8000665c:	11 aa       	ld.ub	r10,r8[0x2]
8000665e:	11 b9       	ld.ub	r9,r8[0x3]
80006660:	30 4e       	mov	lr,4
80006662:	f3 ea 10 89 	or	r9,r9,r10<<0x8
80006666:	f2 0a 16 08 	lsr	r10,r9,0x8
8000666a:	f5 e9 10 89 	or	r9,r10,r9<<0x8
8000666e:	5c 79       	castu.h	r9
80006670:	f0 09 00 09 	add	r9,r8,r9
80006674:	c1 48       	rjmp	8000669c <udc_update_iface_desc+0x68>
80006676:	11 9a       	ld.ub	r10,r8[0x1]
80006678:	fc 0a 18 00 	cp.b	r10,lr
8000667c:	c0 e1       	brne	80006698 <udc_update_iface_desc+0x64>
8000667e:	11 aa       	ld.ub	r10,r8[0x2]
80006680:	f8 0a 18 00 	cp.b	r10,r12
80006684:	c0 a1       	brne	80006698 <udc_update_iface_desc+0x64>
80006686:	11 ba       	ld.ub	r10,r8[0x3]
80006688:	f6 0a 18 00 	cp.b	r10,r11
8000668c:	c0 61       	brne	80006698 <udc_update_iface_desc+0x64>
8000668e:	e0 69 05 08 	mov	r9,1288
80006692:	30 1c       	mov	r12,1
80006694:	93 08       	st.w	r9[0x0],r8
80006696:	d8 02       	popm	pc
80006698:	11 8a       	ld.ub	r10,r8[0x0]
8000669a:	14 08       	add	r8,r10
8000669c:	10 39       	cp.w	r9,r8
8000669e:	fe 9b ff ec 	brhi	80006676 <udc_update_iface_desc+0x42>
800066a2:	e0 69 05 08 	mov	r9,1288
800066a6:	30 0c       	mov	r12,0
800066a8:	93 08       	st.w	r9[0x0],r8
800066aa:	d8 02       	popm	pc
800066ac:	d8 0a       	popm	pc,r12=0
800066ae:	d7 03       	nop

800066b0 <udc_sof_notify>:
800066b0:	d4 21       	pushm	r4-r7,lr
800066b2:	e0 68 05 04 	mov	r8,1284
800066b6:	11 89       	ld.ub	r9,r8[0x0]
800066b8:	30 08       	mov	r8,0
800066ba:	f0 09 18 00 	cp.b	r9,r8
800066be:	c1 50       	breq	800066e8 <udc_sof_notify+0x38>
800066c0:	30 07       	mov	r7,0
800066c2:	e0 66 04 fc 	mov	r6,1276
800066c6:	c0 a8       	rjmp	800066da <udc_sof_notify+0x2a>
800066c8:	70 18       	ld.w	r8,r8[0x4]
800066ca:	f0 07 03 28 	ld.w	r8,r8[r7<<0x2]
800066ce:	70 48       	ld.w	r8,r8[0x10]
800066d0:	58 08       	cp.w	r8,0
800066d2:	c0 20       	breq	800066d6 <udc_sof_notify+0x26>
800066d4:	5d 18       	icall	r8
800066d6:	2f f7       	sub	r7,-1
800066d8:	5c 57       	castu.b	r7
800066da:	6c 08       	ld.w	r8,r6[0x0]
800066dc:	70 09       	ld.w	r9,r8[0x0]
800066de:	13 c9       	ld.ub	r9,r9[0x4]
800066e0:	ee 09 18 00 	cp.b	r9,r7
800066e4:	fe 9b ff f2 	brhi	800066c8 <udc_sof_notify+0x18>
800066e8:	d8 22       	popm	r4-r7,pc
800066ea:	d7 03       	nop

800066ec <udc_valid_address>:
800066ec:	d4 01       	pushm	lr
800066ee:	e0 68 2a 48 	mov	r8,10824
800066f2:	11 bc       	ld.ub	r12,r8[0x3]
800066f4:	f9 dc c0 07 	bfextu	r12,r12,0x0,0x7
800066f8:	fe b0 f1 90 	rcall	80004a18 <udd_set_address>
800066fc:	d8 02       	popm	pc
800066fe:	d7 03       	nop

80006700 <udc_iface_enable>:
80006700:	d4 31       	pushm	r0-r7,lr
80006702:	18 96       	mov	r6,r12
80006704:	c9 8f       	rcall	80006634 <udc_update_iface_desc>
80006706:	c3 e0       	breq	80006782 <udc_iface_enable+0x82>
80006708:	e0 68 05 08 	mov	r8,1288
8000670c:	e0 63 04 fc 	mov	r3,1276
80006710:	70 07       	ld.w	r7,r8[0x0]
80006712:	30 44       	mov	r4,4
80006714:	30 55       	mov	r5,5
80006716:	66 0a       	ld.w	r10,r3[0x0]
80006718:	74 08       	ld.w	r8,r10[0x0]
8000671a:	11 ac       	ld.ub	r12,r8[0x2]
8000671c:	11 bb       	ld.ub	r11,r8[0x3]
8000671e:	0f 89       	ld.ub	r9,r7[0x0]
80006720:	f7 ec 10 8b 	or	r11,r11,r12<<0x8
80006724:	ee 09 00 09 	add	r9,r7,r9
80006728:	f6 0c 16 08 	lsr	r12,r11,0x8
8000672c:	f9 eb 10 8b 	or	r11,r12,r11<<0x8
80006730:	5c 7b       	castu.h	r11
80006732:	16 08       	add	r8,r11
80006734:	c0 a8       	rjmp	80006748 <udc_iface_enable+0x48>
80006736:	13 9c       	ld.ub	r12,r9[0x1]
80006738:	e8 0c 18 00 	cp.b	r12,r4
8000673c:	c0 90       	breq	8000674e <udc_iface_enable+0x4e>
8000673e:	ea 0c 18 00 	cp.b	r12,r5
80006742:	c0 70       	breq	80006750 <udc_iface_enable+0x50>
80006744:	13 8b       	ld.ub	r11,r9[0x0]
80006746:	16 09       	add	r9,r11
80006748:	12 38       	cp.w	r8,r9
8000674a:	fe 9b ff f6 	brhi	80006736 <udc_iface_enable+0x36>
8000674e:	30 09       	mov	r9,0
80006750:	12 97       	mov	r7,r9
80006752:	58 09       	cp.w	r9,0
80006754:	c1 10       	breq	80006776 <udc_iface_enable+0x76>
80006756:	13 ca       	ld.ub	r10,r9[0x4]
80006758:	13 d8       	ld.ub	r8,r9[0x5]
8000675a:	13 ac       	ld.ub	r12,r9[0x2]
8000675c:	f1 ea 10 88 	or	r8,r8,r10<<0x8
80006760:	13 bb       	ld.ub	r11,r9[0x3]
80006762:	f0 09 16 08 	lsr	r9,r8,0x8
80006766:	f3 e8 10 88 	or	r8,r9,r8<<0x8
8000676a:	f5 d8 c0 10 	bfextu	r10,r8,0x0,0x10
8000676e:	fe b0 f4 e9 	rcall	80005140 <udd_ep_alloc>
80006772:	cd 21       	brne	80006716 <udc_iface_enable+0x16>
80006774:	c0 78       	rjmp	80006782 <udc_iface_enable+0x82>
80006776:	74 18       	ld.w	r8,r10[0x4]
80006778:	f0 06 03 28 	ld.w	r8,r8[r6<<0x2]
8000677c:	70 0c       	ld.w	r12,r8[0x0]
8000677e:	5d 1c       	icall	r12
80006780:	d8 32       	popm	r0-r7,pc
80006782:	d8 3a       	popm	r0-r7,pc,r12=0

80006784 <udc_iface_disable>:
80006784:	d4 31       	pushm	r0-r7,lr
80006786:	30 0b       	mov	r11,0
80006788:	18 95       	mov	r5,r12
8000678a:	c5 5f       	rcall	80006634 <udc_update_iface_desc>
8000678c:	c3 90       	breq	800067fe <udc_iface_disable+0x7a>
8000678e:	e0 66 04 fc 	mov	r6,1276
80006792:	6c 08       	ld.w	r8,r6[0x0]
80006794:	70 18       	ld.w	r8,r8[0x4]
80006796:	f0 05 03 27 	ld.w	r7,r8[r5<<0x2]
8000679a:	6e 3c       	ld.w	r12,r7[0xc]
8000679c:	5d 1c       	icall	r12
8000679e:	18 9b       	mov	r11,r12
800067a0:	0a 9c       	mov	r12,r5
800067a2:	c4 9f       	rcall	80006634 <udc_update_iface_desc>
800067a4:	c2 d0       	breq	800067fe <udc_iface_disable+0x7a>
800067a6:	e0 68 05 08 	mov	r8,1288
800067aa:	30 43       	mov	r3,4
800067ac:	70 05       	ld.w	r5,r8[0x0]
800067ae:	30 54       	mov	r4,5
800067b0:	6c 08       	ld.w	r8,r6[0x0]
800067b2:	70 09       	ld.w	r9,r8[0x0]
800067b4:	13 ab       	ld.ub	r11,r9[0x2]
800067b6:	13 ba       	ld.ub	r10,r9[0x3]
800067b8:	0b 88       	ld.ub	r8,r5[0x0]
800067ba:	f5 eb 10 8a 	or	r10,r10,r11<<0x8
800067be:	ea 08 00 08 	add	r8,r5,r8
800067c2:	f4 0b 16 08 	lsr	r11,r10,0x8
800067c6:	f7 ea 10 8a 	or	r10,r11,r10<<0x8
800067ca:	5c 7a       	castu.h	r10
800067cc:	14 09       	add	r9,r10
800067ce:	c0 a8       	rjmp	800067e2 <udc_iface_disable+0x5e>
800067d0:	11 9b       	ld.ub	r11,r8[0x1]
800067d2:	e6 0b 18 00 	cp.b	r11,r3
800067d6:	c0 90       	breq	800067e8 <udc_iface_disable+0x64>
800067d8:	e8 0b 18 00 	cp.b	r11,r4
800067dc:	c0 70       	breq	800067ea <udc_iface_disable+0x66>
800067de:	11 8a       	ld.ub	r10,r8[0x0]
800067e0:	14 08       	add	r8,r10
800067e2:	10 39       	cp.w	r9,r8
800067e4:	fe 9b ff f6 	brhi	800067d0 <udc_iface_disable+0x4c>
800067e8:	30 08       	mov	r8,0
800067ea:	10 95       	mov	r5,r8
800067ec:	58 08       	cp.w	r8,0
800067ee:	c0 50       	breq	800067f8 <udc_iface_disable+0x74>
800067f0:	11 ac       	ld.ub	r12,r8[0x2]
800067f2:	fe b0 f2 81 	rcall	80004cf4 <udd_ep_free>
800067f6:	cd db       	rjmp	800067b0 <udc_iface_disable+0x2c>
800067f8:	6e 18       	ld.w	r8,r7[0x4]
800067fa:	5d 18       	icall	r8
800067fc:	da 3a       	popm	r0-r7,pc,r12=1
800067fe:	d8 3a       	popm	r0-r7,pc,r12=0

80006800 <udc_reset>:
80006800:	d4 21       	pushm	r4-r7,lr
80006802:	e0 68 05 04 	mov	r8,1284
80006806:	11 89       	ld.ub	r9,r8[0x0]
80006808:	30 08       	mov	r8,0
8000680a:	f0 09 18 00 	cp.b	r9,r8
8000680e:	c1 00       	breq	8000682e <udc_reset+0x2e>
80006810:	30 07       	mov	r7,0
80006812:	e0 66 04 fc 	mov	r6,1276
80006816:	c0 58       	rjmp	80006820 <udc_reset+0x20>
80006818:	0e 9c       	mov	r12,r7
8000681a:	cb 5f       	rcall	80006784 <udc_iface_disable>
8000681c:	2f f7       	sub	r7,-1
8000681e:	5c 57       	castu.b	r7
80006820:	6c 08       	ld.w	r8,r6[0x0]
80006822:	70 08       	ld.w	r8,r8[0x0]
80006824:	11 c8       	ld.ub	r8,r8[0x4]
80006826:	ee 08 18 00 	cp.b	r8,r7
8000682a:	fe 9b ff f7 	brhi	80006818 <udc_reset+0x18>
8000682e:	30 09       	mov	r9,0
80006830:	e0 68 05 04 	mov	r8,1284
80006834:	b0 89       	st.b	r8[0x0],r9
80006836:	30 09       	mov	r9,0
80006838:	e0 68 05 02 	mov	r8,1282
8000683c:	b0 09       	st.h	r8[0x0],r9
8000683e:	d8 22       	popm	r4-r7,pc

80006840 <udc_process_setup>:
80006840:	d4 21       	pushm	r4-r7,lr
80006842:	e0 68 2a 48 	mov	r8,10824
80006846:	30 0a       	mov	r10,0
80006848:	30 09       	mov	r9,0
8000684a:	91 5a       	st.w	r8[0x14],r10
8000684c:	b0 69       	st.h	r8[0xc],r9
8000684e:	91 4a       	st.w	r8[0x10],r10
80006850:	11 86       	ld.ub	r6,r8[0x0]
80006852:	f2 06 18 00 	cp.b	r6,r9
80006856:	c0 64       	brge	80006862 <udc_process_setup+0x22>
80006858:	90 38       	ld.sh	r8,r8[0x6]
8000685a:	f2 08 19 00 	cp.h	r8,r9
8000685e:	e0 80 01 b1 	breq	80006bc0 <udc_process_setup+0x380>
80006862:	0c 9b       	mov	r11,r6
80006864:	e2 1b 00 60 	andl	r11,0x60,COH
80006868:	e0 81 01 82 	brne	80006b6c <udc_process_setup+0x32c>
8000686c:	16 98       	mov	r8,r11
8000686e:	f6 06 18 00 	cp.b	r6,r11
80006872:	e0 84 00 d9 	brge	80006a24 <udc_process_setup+0x1e4>
80006876:	e0 67 2a 48 	mov	r7,10824
8000687a:	8e 39       	ld.sh	r9,r7[0x6]
8000687c:	58 09       	cp.w	r9,0
8000687e:	e0 80 01 77 	breq	80006b6c <udc_process_setup+0x32c>
80006882:	ed d6 c0 05 	bfextu	r6,r6,0x0,0x5
80006886:	e0 81 00 88 	brne	80006996 <udc_process_setup+0x156>
8000688a:	0f 9a       	ld.ub	r10,r7[0x1]
8000688c:	30 6b       	mov	r11,6
8000688e:	f6 0a 18 00 	cp.b	r10,r11
80006892:	c1 20       	breq	800068b6 <udc_process_setup+0x76>
80006894:	30 8b       	mov	r11,8
80006896:	f6 0a 18 00 	cp.b	r10,r11
8000689a:	c7 50       	breq	80006984 <udc_process_setup+0x144>
8000689c:	f0 0a 18 00 	cp.b	r10,r8
800068a0:	e0 81 01 66 	brne	80006b6c <udc_process_setup+0x32c>
800068a4:	30 28       	mov	r8,2
800068a6:	f0 09 19 00 	cp.h	r9,r8
800068aa:	e0 81 01 61 	brne	80006b6c <udc_process_setup+0x32c>
800068ae:	30 2b       	mov	r11,2
800068b0:	e0 6c 05 02 	mov	r12,1282
800068b4:	c9 c8       	rjmp	800069ec <udc_process_setup+0x1ac>
800068b6:	8e 1a       	ld.sh	r10,r7[0x2]
800068b8:	30 2b       	mov	r11,2
800068ba:	f1 da c0 10 	bfextu	r8,r10,0x0,0x10
800068be:	f0 06 16 08 	lsr	r6,r8,0x8
800068c2:	f6 06 18 00 	cp.b	r6,r11
800068c6:	c0 f0       	breq	800068e4 <udc_process_setup+0xa4>
800068c8:	30 3a       	mov	r10,3
800068ca:	f4 06 18 00 	cp.b	r6,r10
800068ce:	c2 80       	breq	8000691e <udc_process_setup+0xde>
800068d0:	30 18       	mov	r8,1
800068d2:	f0 06 18 00 	cp.b	r6,r8
800068d6:	e0 81 01 4b 	brne	80006b6c <udc_process_setup+0x32c>
800068da:	32 08       	mov	r8,32
800068dc:	70 08       	ld.w	r8,r8[0x0]
800068de:	10 9c       	mov	r12,r8
800068e0:	11 8b       	ld.ub	r11,r8[0x0]
800068e2:	c4 48       	rjmp	8000696a <udc_process_setup+0x12a>
800068e4:	f1 da c0 08 	bfextu	r8,r10,0x0,0x8
800068e8:	32 09       	mov	r9,32
800068ea:	72 0a       	ld.w	r10,r9[0x0]
800068ec:	f5 3a 00 11 	ld.ub	r10,r10[17]
800068f0:	f0 0a 18 00 	cp.b	r10,r8
800068f4:	e0 88 01 3c 	brls	80006b6c <udc_process_setup+0x32c>
800068f8:	72 19       	ld.w	r9,r9[0x4]
800068fa:	f2 08 03 38 	ld.w	r8,r9[r8<<0x3]
800068fe:	11 a9       	ld.ub	r9,r8[0x2]
80006900:	10 9c       	mov	r12,r8
80006902:	11 b8       	ld.ub	r8,r8[0x3]
80006904:	f1 e9 10 88 	or	r8,r8,r9<<0x8
80006908:	f0 09 16 08 	lsr	r9,r8,0x8
8000690c:	f3 e8 10 88 	or	r8,r9,r8<<0x8
80006910:	f7 d8 c0 10 	bfextu	r11,r8,0x0,0x10
80006914:	fe b0 f0 a0 	rcall	80004a54 <udd_set_setup_payload>
80006918:	6e 28       	ld.w	r8,r7[0x8]
8000691a:	b0 96       	st.b	r8[0x1],r6
8000691c:	c2 98       	rjmp	8000696e <udc_process_setup+0x12e>
8000691e:	f1 d8 c0 08 	bfextu	r8,r8,0x0,0x8
80006922:	58 18       	cp.w	r8,1
80006924:	c0 60       	breq	80006930 <udc_process_setup+0xf0>
80006926:	58 28       	cp.w	r8,2
80006928:	c0 c0       	breq	80006940 <udc_process_setup+0x100>
8000692a:	58 08       	cp.w	r8,0
8000692c:	c0 60       	breq	80006938 <udc_process_setup+0xf8>
8000692e:	c1 f9       	rjmp	80006b6c <udc_process_setup+0x32c>
80006930:	30 58       	mov	r8,5
80006932:	e0 6a 01 2c 	mov	r10,300
80006936:	c0 88       	rjmp	80006946 <udc_process_setup+0x106>
80006938:	30 4b       	mov	r11,4
8000693a:	e0 6c 01 60 	mov	r12,352
8000693e:	c1 68       	rjmp	8000696a <udc_process_setup+0x12a>
80006940:	31 48       	mov	r8,20
80006942:	e0 6a 01 14 	mov	r10,276
80006946:	e0 6b 01 34 	mov	r11,308
8000694a:	14 99       	mov	r9,r10
8000694c:	2f eb       	sub	r11,-2
8000694e:	13 3c       	ld.ub	r12,r9++
80006950:	a9 6c       	lsl	r12,0x8
80006952:	16 bc       	st.h	r11++,r12
80006954:	f2 0a 01 0c 	sub	r12,r9,r10
80006958:	f0 0c 18 00 	cp.b	r12,r8
8000695c:	cf 93       	brcs	8000694e <udc_process_setup+0x10e>
8000695e:	2f f8       	sub	r8,-1
80006960:	e0 6c 01 34 	mov	r12,308
80006964:	a1 78       	lsl	r8,0x1
80006966:	10 9b       	mov	r11,r8
80006968:	b8 88       	st.b	r12[0x0],r8
8000696a:	fe b0 f0 75 	rcall	80004a54 <udd_set_setup_payload>
8000696e:	e0 68 2a 48 	mov	r8,10824
80006972:	90 39       	ld.sh	r9,r8[0x6]
80006974:	90 6a       	ld.sh	r10,r8[0xc]
80006976:	f2 0a 19 00 	cp.h	r10,r9
8000697a:	e0 88 01 24 	brls	80006bc2 <udc_process_setup+0x382>
8000697e:	b0 69       	st.h	r8[0xc],r9
80006980:	c2 19       	rjmp	80006bc2 <udc_process_setup+0x382>
80006982:	d7 03       	nop
80006984:	30 18       	mov	r8,1
80006986:	f0 09 19 00 	cp.h	r9,r8
8000698a:	e0 81 00 f1 	brne	80006b6c <udc_process_setup+0x32c>
8000698e:	30 1b       	mov	r11,1
80006990:	e0 6c 05 04 	mov	r12,1284
80006994:	c2 c8       	rjmp	800069ec <udc_process_setup+0x1ac>
80006996:	58 16       	cp.w	r6,1
80006998:	c2 d1       	brne	800069f2 <udc_process_setup+0x1b2>
8000699a:	0f 9c       	ld.ub	r12,r7[0x1]
8000699c:	30 aa       	mov	r10,10
8000699e:	f4 0c 18 00 	cp.b	r12,r10
800069a2:	e0 81 00 e5 	brne	80006b6c <udc_process_setup+0x32c>
800069a6:	ec 09 19 00 	cp.h	r9,r6
800069aa:	e0 81 00 e1 	brne	80006b6c <udc_process_setup+0x32c>
800069ae:	e0 69 05 04 	mov	r9,1284
800069b2:	13 89       	ld.ub	r9,r9[0x0]
800069b4:	f6 09 18 00 	cp.b	r9,r11
800069b8:	e0 80 00 da 	breq	80006b6c <udc_process_setup+0x32c>
800069bc:	e0 68 04 fc 	mov	r8,1276
800069c0:	0f d7       	ld.ub	r7,r7[0x5]
800069c2:	70 06       	ld.w	r6,r8[0x0]
800069c4:	6c 08       	ld.w	r8,r6[0x0]
800069c6:	11 c8       	ld.ub	r8,r8[0x4]
800069c8:	ee 08 18 00 	cp.b	r8,r7
800069cc:	e0 88 00 d0 	brls	80006b6c <udc_process_setup+0x32c>
800069d0:	0e 9c       	mov	r12,r7
800069d2:	c3 1e       	rcall	80006634 <udc_update_iface_desc>
800069d4:	e0 80 00 cc 	breq	80006b6c <udc_process_setup+0x32c>
800069d8:	6c 18       	ld.w	r8,r6[0x4]
800069da:	f0 07 03 28 	ld.w	r8,r8[r7<<0x2]
800069de:	70 3c       	ld.w	r12,r8[0xc]
800069e0:	5d 1c       	icall	r12
800069e2:	e0 68 04 f9 	mov	r8,1273
800069e6:	30 1b       	mov	r11,1
800069e8:	b0 8c       	st.b	r8[0x0],r12
800069ea:	10 9c       	mov	r12,r8
800069ec:	fe b0 f0 34 	rcall	80004a54 <udd_set_setup_payload>
800069f0:	c3 68       	rjmp	80006a5c <udc_process_setup+0x21c>
800069f2:	58 26       	cp.w	r6,2
800069f4:	e0 81 00 bc 	brne	80006b6c <udc_process_setup+0x32c>
800069f8:	0f 9a       	ld.ub	r10,r7[0x1]
800069fa:	f6 0a 18 00 	cp.b	r10,r11
800069fe:	e0 81 00 b7 	brne	80006b6c <udc_process_setup+0x32c>
80006a02:	ec 09 19 00 	cp.h	r9,r6
80006a06:	e0 81 00 b3 	brne	80006b6c <udc_process_setup+0x32c>
80006a0a:	0f dc       	ld.ub	r12,r7[0x5]
80006a0c:	fe b0 f0 2a 	rcall	80004a60 <udd_ep_is_halted>
80006a10:	e0 68 05 00 	mov	r8,1280
80006a14:	e0 69 01 00 	mov	r9,256
80006a18:	0c 9b       	mov	r11,r6
80006a1a:	58 0c       	cp.w	r12,0
80006a1c:	f9 b9 00 00 	moveq	r9,0
80006a20:	b0 09       	st.h	r8[0x0],r9
80006a22:	ce 4b       	rjmp	800069ea <udc_process_setup+0x1aa>
80006a24:	ef d6 c0 05 	bfextu	r7,r6,0x0,0x5
80006a28:	c5 a1       	brne	80006adc <udc_process_setup+0x29c>
80006a2a:	e0 66 2a 48 	mov	r6,10824
80006a2e:	30 59       	mov	r9,5
80006a30:	0d 98       	ld.ub	r8,r6[0x1]
80006a32:	f2 08 18 00 	cp.b	r8,r9
80006a36:	c0 b0       	breq	80006a4c <udc_process_setup+0x20c>
80006a38:	30 99       	mov	r9,9
80006a3a:	f2 08 18 00 	cp.b	r8,r9
80006a3e:	c2 10       	breq	80006a80 <udc_process_setup+0x240>
80006a40:	30 19       	mov	r9,1
80006a42:	f2 08 18 00 	cp.b	r8,r9
80006a46:	e0 81 00 93 	brne	80006b6c <udc_process_setup+0x32c>
80006a4a:	c0 a8       	rjmp	80006a5e <udc_process_setup+0x21e>
80006a4c:	8c 38       	ld.sh	r8,r6[0x6]
80006a4e:	ee 08 19 00 	cp.h	r8,r7
80006a52:	e0 81 00 8d 	brne	80006b6c <udc_process_setup+0x32c>
80006a56:	fe c8 03 6a 	sub	r8,pc,874
80006a5a:	8d 48       	st.w	r6[0x10],r8
80006a5c:	da 2a       	popm	r4-r7,pc,r12=1
80006a5e:	8c 38       	ld.sh	r8,r6[0x6]
80006a60:	ee 08 19 00 	cp.h	r8,r7
80006a64:	e0 81 00 84 	brne	80006b6c <udc_process_setup+0x32c>
80006a68:	8c 19       	ld.sh	r9,r6[0x2]
80006a6a:	30 18       	mov	r8,1
80006a6c:	f0 09 19 00 	cp.h	r9,r8
80006a70:	c7 e1       	brne	80006b6c <udc_process_setup+0x32c>
80006a72:	e0 69 05 02 	mov	r9,1282
80006a76:	30 1c       	mov	r12,1
80006a78:	92 08       	ld.sh	r8,r9[0x0]
80006a7a:	a9 d8       	cbr	r8,0x9
80006a7c:	b2 08       	st.h	r9[0x0],r8
80006a7e:	d8 22       	popm	r4-r7,pc
80006a80:	8c 39       	ld.sh	r9,r6[0x6]
80006a82:	ee 09 19 00 	cp.h	r9,r7
80006a86:	c7 31       	brne	80006b6c <udc_process_setup+0x32c>
80006a88:	fe b0 ef d9 	rcall	80004a3a <udd_getaddress>
80006a8c:	c7 00       	breq	80006b6c <udc_process_setup+0x32c>
80006a8e:	32 05       	mov	r5,32
80006a90:	0d b9       	ld.ub	r9,r6[0x3]
80006a92:	6a 08       	ld.w	r8,r5[0x0]
80006a94:	f1 38 00 11 	ld.ub	r8,r8[17]
80006a98:	10 39       	cp.w	r9,r8
80006a9a:	e0 89 00 69 	brgt	80006b6c <udc_process_setup+0x32c>
80006a9e:	cb 1e       	rcall	80006800 <udc_reset>
80006aa0:	0d b8       	ld.ub	r8,r6[0x3]
80006aa2:	e0 69 05 04 	mov	r9,1284
80006aa6:	b2 88       	st.b	r9[0x0],r8
80006aa8:	58 08       	cp.w	r8,0
80006aaa:	e0 80 00 8c 	breq	80006bc2 <udc_process_setup+0x382>
80006aae:	20 18       	sub	r8,1
80006ab0:	6a 19       	ld.w	r9,r5[0x4]
80006ab2:	e0 66 04 fc 	mov	r6,1276
80006ab6:	f2 08 00 38 	add	r8,r9,r8<<0x3
80006aba:	8d 08       	st.w	r6[0x0],r8
80006abc:	c0 88       	rjmp	80006acc <udc_process_setup+0x28c>
80006abe:	d7 03       	nop
80006ac0:	0e 9c       	mov	r12,r7
80006ac2:	30 0b       	mov	r11,0
80006ac4:	c1 ee       	rcall	80006700 <udc_iface_enable>
80006ac6:	c5 30       	breq	80006b6c <udc_process_setup+0x32c>
80006ac8:	2f f7       	sub	r7,-1
80006aca:	5c 57       	castu.b	r7
80006acc:	6c 08       	ld.w	r8,r6[0x0]
80006ace:	70 08       	ld.w	r8,r8[0x0]
80006ad0:	11 c8       	ld.ub	r8,r8[0x4]
80006ad2:	ee 08 18 00 	cp.b	r8,r7
80006ad6:	fe 9b ff f5 	brhi	80006ac0 <udc_process_setup+0x280>
80006ada:	c7 48       	rjmp	80006bc2 <udc_process_setup+0x382>
80006adc:	58 17       	cp.w	r7,1
80006ade:	c1 d1       	brne	80006b18 <udc_process_setup+0x2d8>
80006ae0:	e0 69 2a 48 	mov	r9,10824
80006ae4:	30 ba       	mov	r10,11
80006ae6:	13 9c       	ld.ub	r12,r9[0x1]
80006ae8:	f4 0c 18 00 	cp.b	r12,r10
80006aec:	c4 01       	brne	80006b6c <udc_process_setup+0x32c>
80006aee:	92 3a       	ld.sh	r10,r9[0x6]
80006af0:	f6 0a 19 00 	cp.h	r10,r11
80006af4:	c3 c1       	brne	80006b6c <udc_process_setup+0x32c>
80006af6:	e0 6a 05 04 	mov	r10,1284
80006afa:	15 8a       	ld.ub	r10,r10[0x0]
80006afc:	f6 0a 18 00 	cp.b	r10,r11
80006b00:	c3 60       	breq	80006b6c <udc_process_setup+0x32c>
80006b02:	13 d7       	ld.ub	r7,r9[0x5]
80006b04:	92 16       	ld.sh	r6,r9[0x2]
80006b06:	0e 9c       	mov	r12,r7
80006b08:	c3 ee       	rcall	80006784 <udc_iface_disable>
80006b0a:	c3 10       	breq	80006b6c <udc_process_setup+0x32c>
80006b0c:	f7 d6 c0 08 	bfextu	r11,r6,0x0,0x8
80006b10:	0e 9c       	mov	r12,r7
80006b12:	fe b0 fd f7 	rcall	80006700 <udc_iface_enable>
80006b16:	c2 98       	rjmp	80006b68 <udc_process_setup+0x328>
80006b18:	58 27       	cp.w	r7,2
80006b1a:	c2 91       	brne	80006b6c <udc_process_setup+0x32c>
80006b1c:	e0 67 2a 48 	mov	r7,10824
80006b20:	30 19       	mov	r9,1
80006b22:	0f 98       	ld.ub	r8,r7[0x1]
80006b24:	f2 08 18 00 	cp.b	r8,r9
80006b28:	c0 60       	breq	80006b34 <udc_process_setup+0x2f4>
80006b2a:	30 39       	mov	r9,3
80006b2c:	f2 08 18 00 	cp.b	r8,r9
80006b30:	c1 e1       	brne	80006b6c <udc_process_setup+0x32c>
80006b32:	c0 d8       	rjmp	80006b4c <udc_process_setup+0x30c>
80006b34:	8e 38       	ld.sh	r8,r7[0x6]
80006b36:	f6 08 19 00 	cp.h	r8,r11
80006b3a:	c1 91       	brne	80006b6c <udc_process_setup+0x32c>
80006b3c:	8e 19       	ld.sh	r9,r7[0x2]
80006b3e:	f0 09 19 00 	cp.h	r9,r8
80006b42:	c1 51       	brne	80006b6c <udc_process_setup+0x32c>
80006b44:	0f dc       	ld.ub	r12,r7[0x5]
80006b46:	fe b0 ef eb 	rcall	80004b1c <udd_ep_clear_halt>
80006b4a:	c0 f8       	rjmp	80006b68 <udc_process_setup+0x328>
80006b4c:	8e 38       	ld.sh	r8,r7[0x6]
80006b4e:	f6 08 19 00 	cp.h	r8,r11
80006b52:	c0 d1       	brne	80006b6c <udc_process_setup+0x32c>
80006b54:	8e 19       	ld.sh	r9,r7[0x2]
80006b56:	f0 09 19 00 	cp.h	r9,r8
80006b5a:	c0 91       	brne	80006b6c <udc_process_setup+0x32c>
80006b5c:	0f dc       	ld.ub	r12,r7[0x5]
80006b5e:	fe b0 f0 8f 	rcall	80004c7c <udd_ep_abort>
80006b62:	0f dc       	ld.ub	r12,r7[0x5]
80006b64:	fe b0 ef 88 	rcall	80004a74 <udd_ep_set_halt>
80006b68:	58 0c       	cp.w	r12,0
80006b6a:	c2 c1       	brne	80006bc2 <udc_process_setup+0x382>
80006b6c:	e0 68 2a 48 	mov	r8,10824
80006b70:	11 89       	ld.ub	r9,r8[0x0]
80006b72:	f3 d9 c0 05 	bfextu	r9,r9,0x0,0x5
80006b76:	58 19       	cp.w	r9,1
80006b78:	c2 41       	brne	80006bc0 <udc_process_setup+0x380>
80006b7a:	e0 69 05 04 	mov	r9,1284
80006b7e:	13 8a       	ld.ub	r10,r9[0x0]
80006b80:	30 09       	mov	r9,0
80006b82:	f2 0a 18 00 	cp.b	r10,r9
80006b86:	c1 d0       	breq	80006bc0 <udc_process_setup+0x380>
80006b88:	11 d7       	ld.ub	r7,r8[0x5]
80006b8a:	e0 68 04 fc 	mov	r8,1276
80006b8e:	70 06       	ld.w	r6,r8[0x0]
80006b90:	6c 08       	ld.w	r8,r6[0x0]
80006b92:	11 c8       	ld.ub	r8,r8[0x4]
80006b94:	ee 08 18 00 	cp.b	r8,r7
80006b98:	e0 88 00 14 	brls	80006bc0 <udc_process_setup+0x380>
80006b9c:	30 0b       	mov	r11,0
80006b9e:	0e 9c       	mov	r12,r7
80006ba0:	fe b0 fd 4a 	rcall	80006634 <udc_update_iface_desc>
80006ba4:	c0 e0       	breq	80006bc0 <udc_process_setup+0x380>
80006ba6:	6c 18       	ld.w	r8,r6[0x4]
80006ba8:	f0 07 03 26 	ld.w	r6,r8[r7<<0x2]
80006bac:	6c 3c       	ld.w	r12,r6[0xc]
80006bae:	5d 1c       	icall	r12
80006bb0:	18 9b       	mov	r11,r12
80006bb2:	0e 9c       	mov	r12,r7
80006bb4:	fe b0 fd 40 	rcall	80006634 <udc_update_iface_desc>
80006bb8:	c0 40       	breq	80006bc0 <udc_process_setup+0x380>
80006bba:	6c 2c       	ld.w	r12,r6[0x8]
80006bbc:	5d 1c       	icall	r12
80006bbe:	d8 22       	popm	r4-r7,pc
80006bc0:	d8 2a       	popm	r4-r7,pc,r12=0
80006bc2:	da 2a       	popm	r4-r7,pc,r12=1

80006bc4 <udc_start>:
80006bc4:	d4 01       	pushm	lr
80006bc6:	fe b0 f3 75 	rcall	800052b0 <udd_enable>
80006bca:	d8 02       	popm	pc

80006bcc <main_keyboard_enable>:
80006bcc:	30 19       	mov	r9,1
80006bce:	e0 68 05 0e 	mov	r8,1294
80006bd2:	30 1c       	mov	r12,1
80006bd4:	b0 89       	st.b	r8[0x0],r9
80006bd6:	5e fc       	retal	r12

80006bd8 <main_keyboard_disable>:
80006bd8:	30 09       	mov	r9,0
80006bda:	e0 68 05 0e 	mov	r8,1294
80006bde:	b0 89       	st.b	r8[0x0],r9
80006be0:	5e fc       	retal	r12
80006be2:	d7 03       	nop

80006be4 <main_msc_enable>:
80006be4:	30 19       	mov	r9,1
80006be6:	e0 68 05 12 	mov	r8,1298
80006bea:	30 1c       	mov	r12,1
80006bec:	b0 89       	st.b	r8[0x0],r9
80006bee:	5e fc       	retal	r12

80006bf0 <main_msc_disable>:
80006bf0:	30 09       	mov	r9,0
80006bf2:	e0 68 05 12 	mov	r8,1298
80006bf6:	b0 89       	st.b	r8[0x0],r9
80006bf8:	5e fc       	retal	r12
80006bfa:	d7 03       	nop

80006bfc <ui_kbd_led>:
80006bfc:	5e fc       	retal	r12
80006bfe:	d7 03       	nop

80006c00 <process_frame>:
80006c00:	d4 01       	pushm	lr
80006c02:	e0 68 05 0c 	mov	r8,1292
80006c06:	11 89       	ld.ub	r9,r8[0x0]
80006c08:	2f f9       	sub	r9,-1
80006c0a:	b0 89       	st.b	r8[0x0],r9
80006c0c:	30 1a       	mov	r10,1
80006c0e:	f4 09 18 00 	cp.b	r9,r10
80006c12:	e0 88 00 b4 	brls	80006d7a <process_frame+0x17a>
80006c16:	30 09       	mov	r9,0
80006c18:	f7 dc c0 28 	bfextu	r11,r12,0x1,0x8
80006c1c:	b0 89       	st.b	r8[0x0],r9
80006c1e:	30 1c       	mov	r12,1
80006c20:	fe b0 ec 3e 	rcall	8000449c <LED_Set_Intensity>
80006c24:	e0 68 05 10 	mov	r8,1296
80006c28:	90 09       	ld.sh	r9,r8[0x0]
80006c2a:	58 09       	cp.w	r9,0
80006c2c:	c0 30       	breq	80006c32 <process_frame+0x32>
80006c2e:	20 19       	sub	r9,1
80006c30:	b0 09       	st.h	r8[0x0],r9
80006c32:	e0 68 01 68 	mov	r8,360
80006c36:	70 09       	ld.w	r9,r8[0x0]
80006c38:	58 99       	cp.w	r9,9
80006c3a:	e0 8b 00 9e 	brhi	80006d76 <process_frame+0x176>
80006c3e:	fe c8 f7 1a 	sub	r8,pc,-2278
80006c42:	f0 09 03 2f 	ld.w	pc,r8[r9<<0x2]
80006c46:	30 2c       	mov	r12,2
80006c48:	fe b0 ec 92 	rcall	8000456c <LED_Off>
80006c4c:	30 dc       	mov	r12,13
80006c4e:	fe b0 ed 68 	rcall	8000471e <gpio_get_pin_value>
80006c52:	e0 81 00 94 	brne	80006d7a <process_frame+0x17a>
80006c56:	e0 68 05 10 	mov	r8,1296
80006c5a:	90 0a       	ld.sh	r10,r8[0x0]
80006c5c:	f8 0a 19 00 	cp.h	r10,r12
80006c60:	e0 81 00 8d 	brne	80006d7a <process_frame+0x17a>
80006c64:	e0 69 01 68 	mov	r9,360
80006c68:	30 1a       	mov	r10,1
80006c6a:	93 0a       	st.w	r9[0x0],r10
80006c6c:	e0 69 25 18 	mov	r9,9496
80006c70:	93 0c       	st.w	r9[0x0],r12
80006c72:	36 49       	mov	r9,100
80006c74:	b0 09       	st.h	r8[0x0],r9
80006c76:	d8 02       	popm	pc
80006c78:	e0 68 25 18 	mov	r8,9496
80006c7c:	70 08       	ld.w	r8,r8[0x0]
80006c7e:	e0 48 0f ff 	cp.w	r8,4095
80006c82:	e0 88 00 04 	brls	80006c8a <process_frame+0x8a>
80006c86:	30 09       	mov	r9,0
80006c88:	c7 38       	rjmp	80006d6e <process_frame+0x16e>
80006c8a:	e0 69 25 16 	mov	r9,9494
80006c8e:	92 0a       	ld.sh	r10,r9[0x0]
80006c90:	30 09       	mov	r9,0
80006c92:	f2 0a 19 00 	cp.h	r10,r9
80006c96:	c0 51       	brne	80006ca0 <process_frame+0xa0>
80006c98:	30 0a       	mov	r10,0
80006c9a:	e0 69 01 68 	mov	r9,360
80006c9e:	93 0a       	st.w	r9[0x0],r10
80006ca0:	f0 c9 ff ff 	sub	r9,r8,-1
80006ca4:	e0 6a 05 14 	mov	r10,1300
80006ca8:	f4 08 04 1a 	ld.sh	r10,r10[r8<<0x1]
80006cac:	e0 68 25 16 	mov	r8,9494
80006cb0:	b0 0a       	st.h	r8[0x0],r10
80006cb2:	e0 68 25 18 	mov	r8,9496
80006cb6:	91 09       	st.w	r8[0x0],r9
80006cb8:	ed b9 00 00 	bld	r9,0x0
80006cbc:	c0 50       	breq	80006cc6 <process_frame+0xc6>
80006cbe:	30 2c       	mov	r12,2
80006cc0:	fe b0 ec 34 	rcall	80004528 <LED_On>
80006cc4:	c0 48       	rjmp	80006ccc <process_frame+0xcc>
80006cc6:	30 2c       	mov	r12,2
80006cc8:	fe b0 ec 52 	rcall	8000456c <LED_Off>
80006ccc:	e0 68 25 16 	mov	r8,9494
80006cd0:	90 89       	ld.uh	r9,r8[0x0]
80006cd2:	f1 d9 c0 08 	bfextu	r8,r9,0x0,0x8
80006cd6:	e0 48 00 fe 	cp.w	r8,254
80006cda:	c0 91       	brne	80006cec <process_frame+0xec>
80006cdc:	e0 69 01 68 	mov	r9,360
80006ce0:	30 08       	mov	r8,0
80006ce2:	93 08       	st.w	r9[0x0],r8
80006ce4:	e0 69 05 10 	mov	r9,1296
80006ce8:	b2 08       	st.h	r9[0x0],r8
80006cea:	d8 02       	popm	pc
80006cec:	a9 89       	lsr	r9,0x8
80006cee:	58 08       	cp.w	r8,0
80006cf0:	c0 61       	brne	80006cfc <process_frame+0xfc>
80006cf2:	e0 68 25 14 	mov	r8,9492
80006cf6:	b0 89       	st.b	r8[0x0],r9
80006cf8:	30 99       	mov	r9,9
80006cfa:	c3 a8       	rjmp	80006d6e <process_frame+0x16e>
80006cfc:	e0 68 01 68 	mov	r8,360
80006d00:	58 09       	cp.w	r9,0
80006d02:	c0 31       	brne	80006d08 <process_frame+0x108>
80006d04:	30 39       	mov	r9,3
80006d06:	c3 68       	rjmp	80006d72 <process_frame+0x172>
80006d08:	30 59       	mov	r9,5
80006d0a:	c3 48       	rjmp	80006d72 <process_frame+0x172>
80006d0c:	e0 68 25 16 	mov	r8,9494
80006d10:	11 9c       	ld.ub	r12,r8[0x1]
80006d12:	fe b0 f8 13 	rcall	80005d38 <udi_hid_kbd_down>
80006d16:	30 49       	mov	r9,4
80006d18:	c2 b8       	rjmp	80006d6e <process_frame+0x16e>
80006d1a:	d7 03       	nop
80006d1c:	e0 68 25 16 	mov	r8,9494
80006d20:	11 9c       	ld.ub	r12,r8[0x1]
80006d22:	fe b0 f8 35 	rcall	80005d8c <udi_hid_kbd_up>
80006d26:	c2 38       	rjmp	80006d6c <process_frame+0x16c>
80006d28:	e0 68 25 16 	mov	r8,9494
80006d2c:	11 8c       	ld.ub	r12,r8[0x0]
80006d2e:	fe b0 f8 65 	rcall	80005df8 <udi_hid_kbd_modifier_down>
80006d32:	30 69       	mov	r9,6
80006d34:	c1 d8       	rjmp	80006d6e <process_frame+0x16e>
80006d36:	e0 68 25 16 	mov	r8,9494
80006d3a:	11 9c       	ld.ub	r12,r8[0x1]
80006d3c:	fe b0 f7 fe 	rcall	80005d38 <udi_hid_kbd_down>
80006d40:	30 79       	mov	r9,7
80006d42:	c1 68       	rjmp	80006d6e <process_frame+0x16e>
80006d44:	e0 68 25 16 	mov	r8,9494
80006d48:	11 9c       	ld.ub	r12,r8[0x1]
80006d4a:	fe b0 f8 21 	rcall	80005d8c <udi_hid_kbd_up>
80006d4e:	30 89       	mov	r9,8
80006d50:	c0 f8       	rjmp	80006d6e <process_frame+0x16e>
80006d52:	e0 68 25 16 	mov	r8,9494
80006d56:	11 8c       	ld.ub	r12,r8[0x0]
80006d58:	fe b0 f8 62 	rcall	80005e1c <udi_hid_kbd_modifier_up>
80006d5c:	c0 88       	rjmp	80006d6c <process_frame+0x16c>
80006d5e:	e0 69 25 14 	mov	r9,9492
80006d62:	13 88       	ld.ub	r8,r9[0x0]
80006d64:	20 18       	sub	r8,1
80006d66:	5c 58       	castu.b	r8
80006d68:	b2 88       	st.b	r9[0x0],r8
80006d6a:	c0 81       	brne	80006d7a <process_frame+0x17a>
80006d6c:	30 29       	mov	r9,2
80006d6e:	e0 68 01 68 	mov	r8,360
80006d72:	91 09       	st.w	r8[0x0],r9
80006d74:	d8 02       	popm	pc
80006d76:	30 09       	mov	r9,0
80006d78:	91 09       	st.w	r8[0x0],r9
80006d7a:	d8 02       	popm	pc

80006d7c <memories_initialization>:
80006d7c:	d4 21       	pushm	r4-r7,lr
80006d7e:	20 4d       	sub	sp,16
80006d80:	fe c8 f8 10 	sub	r8,pc,-2032
80006d84:	f0 ea 00 08 	ld.d	r10,r8[8]
80006d88:	fa eb 00 08 	st.d	sp[8],r10
80006d8c:	f0 e8 00 00 	ld.d	r8,r8[0]
80006d90:	18 97       	mov	r7,r12
80006d92:	fa e9 00 00 	st.d	sp[0],r8
80006d96:	30 5b       	mov	r11,5
80006d98:	30 2c       	mov	r12,2
80006d9a:	fe b0 f6 5d 	rcall	80005a54 <sysclk_priv_enable_module>
80006d9e:	fe 7c 24 00 	mov	r12,-56320
80006da2:	1a 96       	mov	r6,sp
80006da4:	fe b0 ee 17 	rcall	800049d2 <spi_is_enabled>
80006da8:	18 95       	mov	r5,r12
80006daa:	c1 11       	brne	80006dcc <memories_initialization+0x50>
80006dac:	1a 9b       	mov	r11,sp
80006dae:	fe 7c 24 00 	mov	r12,-56320
80006db2:	fe b0 ed 4f 	rcall	80004850 <spi_initMaster>
80006db6:	0a 99       	mov	r9,r5
80006db8:	0a 9a       	mov	r10,r5
80006dba:	0a 9b       	mov	r11,r5
80006dbc:	fe 7c 24 00 	mov	r12,-56320
80006dc0:	fe b0 ed 65 	rcall	8000488a <spi_selectionMode>
80006dc4:	fe 7c 24 00 	mov	r12,-56320
80006dc8:	fe b0 ee 02 	rcall	800049cc <spi_enable>
80006dcc:	20 4d       	sub	sp,16
80006dce:	fa c8 ff f0 	sub	r8,sp,-16
80006dd2:	f0 ea 00 08 	ld.d	r10,r8[8]
80006dd6:	fa eb 00 08 	st.d	sp[8],r10
80006dda:	f0 e8 00 00 	ld.d	r8,r8[0]
80006dde:	0e 9c       	mov	r12,r7
80006de0:	fa e9 00 00 	st.d	sp[0],r8
80006de4:	fe b0 dd 7e 	rcall	800028e0 <sd_mmc_spi_init>
80006de8:	2f cd       	sub	sp,-16
80006dea:	2f cd       	sub	sp,-16
80006dec:	d8 22       	popm	r4-r7,pc
80006dee:	d7 03       	nop

80006df0 <main_sof_action>:
80006df0:	d4 01       	pushm	lr
80006df2:	e0 68 05 0e 	mov	r8,1294
80006df6:	11 89       	ld.ub	r9,r8[0x0]
80006df8:	30 08       	mov	r8,0
80006dfa:	f0 09 18 00 	cp.b	r9,r8
80006dfe:	c0 50       	breq	80006e08 <main_sof_action+0x18>
80006e00:	fe b0 ee 23 	rcall	80004a46 <udd_get_frame_number>
80006e04:	5c 7c       	castu.h	r12
80006e06:	cf de       	rcall	80006c00 <process_frame>
80006e08:	d8 02       	popm	pc
80006e0a:	d7 03       	nop

80006e0c <main_resume_action>:
80006e0c:	d4 01       	pushm	lr
80006e0e:	fe b0 f7 0f 	rcall	80005c2c <ui_wakeup>
80006e12:	d8 02       	popm	pc

80006e14 <main_suspend_action>:
80006e14:	d4 01       	pushm	lr
80006e16:	fe b0 f7 1d 	rcall	80005c50 <ui_powerdown>
80006e1a:	d8 02       	popm	pc

80006e1c <main_vbus_action>:
80006e1c:	d4 01       	pushm	lr
80006e1e:	58 0c       	cp.w	r12,0
80006e20:	c0 40       	breq	80006e28 <main_vbus_action+0xc>
80006e22:	fe b0 f0 c1 	rcall	80004fa4 <udd_attach>
80006e26:	d8 02       	popm	pc
80006e28:	fe b0 f0 ac 	rcall	80004f80 <udd_detach>
80006e2c:	d8 02       	popm	pc
80006e2e:	d7 03       	nop

80006e30 <main>:
80006e30:	d4 21       	pushm	r4-r7,lr
80006e32:	fe b0 ec c3 	rcall	800047b8 <INTC_init_interrupts>
80006e36:	d5 03       	csrf	0x10
80006e38:	e0 68 2a 60 	mov	r8,10848
80006e3c:	30 19       	mov	r9,1
80006e3e:	30 07       	mov	r7,0
80006e40:	b0 e9       	st.b	r8[0x6],r9
80006e42:	b0 87       	st.b	r8[0x0],r7
80006e44:	b0 97       	st.b	r8[0x1],r7
80006e46:	b0 a7       	st.b	r8[0x2],r7
80006e48:	b0 b7       	st.b	r8[0x3],r7
80006e4a:	b0 c7       	st.b	r8[0x4],r7
80006e4c:	b0 d7       	st.b	r8[0x5],r7
80006e4e:	fe b0 f5 e7 	rcall	80005a1c <sysclk_init>
80006e52:	fe b0 ea fb 	rcall	80004448 <board_init>
80006e56:	fe b0 f7 05 	rcall	80005c60 <ui_init>
80006e5a:	fe b0 f6 fb 	rcall	80005c50 <ui_powerdown>
80006e5e:	e0 6c 1b 00 	mov	r12,6912
80006e62:	ea 1c 00 b7 	orh	r12,0xb7
80006e66:	c8 bf       	rcall	80006d7c <memories_initialization>
80006e68:	fe b0 e9 dc 	rcall	80004220 <nav_reset>
80006e6c:	e0 68 01 64 	mov	r8,356
80006e70:	30 0a       	mov	r10,0
80006e72:	70 0c       	ld.w	r12,r8[0x0]
80006e74:	14 9b       	mov	r11,r10
80006e76:	fe b0 e8 f7 	rcall	80004064 <nav_setcwd>
80006e7a:	c4 00       	breq	80006efa <main+0xca>
80006e7c:	30 9c       	mov	r12,9
80006e7e:	fe b0 e7 0f 	rcall	80003c9c <file_open>
80006e82:	fe b0 e5 f7 	rcall	80003a70 <file_bof>
80006e86:	fe b0 e6 3f 	rcall	80003b04 <file_getc>
80006e8a:	ed dc b0 10 	bfexts	r6,r12,0x0,0x10
80006e8e:	fe b0 e6 3b 	rcall	80003b04 <file_getc>
80006e92:	5c 7c       	castu.h	r12
80006e94:	e0 64 2a 6a 	mov	r4,10858
80006e98:	ed ec 10 86 	or	r6,r6,r12<<0x8
80006e9c:	a8 06       	st.h	r4[0x0],r6
80006e9e:	fe b0 e6 33 	rcall	80003b04 <file_getc>
80006ea2:	ed dc b0 10 	bfexts	r6,r12,0x0,0x10
80006ea6:	fe b0 e6 2f 	rcall	80003b04 <file_getc>
80006eaa:	5c 7c       	castu.h	r12
80006eac:	e0 65 2a 68 	mov	r5,10856
80006eb0:	ed ec 10 86 	or	r6,r6,r12<<0x8
80006eb4:	aa 06       	st.h	r5[0x0],r6
80006eb6:	fe b0 e6 27 	rcall	80003b04 <file_getc>
80006eba:	e0 68 05 0d 	mov	r8,1293
80006ebe:	e0 66 25 1c 	mov	r6,9500
80006ec2:	b0 8c       	st.b	r8[0x0],r12
80006ec4:	30 1b       	mov	r11,1
80006ec6:	0c 9c       	mov	r12,r6
80006ec8:	fe b0 e6 4a 	rcall	80003b5c <file_read_buf>
80006ecc:	88 8a       	ld.uh	r10,r4[0x0]
80006ece:	8a 89       	ld.uh	r9,r5[0x0]
80006ed0:	32 88       	mov	r8,40
80006ed2:	f1 6a 00 09 	st.b	r8[9],r10
80006ed6:	f1 69 00 0b 	st.b	r8[11],r9
80006eda:	f1 67 00 0c 	st.b	r8[12],r7
80006ede:	a9 89       	lsr	r9,0x8
80006ee0:	e0 6b 25 28 	mov	r11,9512
80006ee4:	97 06       	st.w	r11[0x0],r6
80006ee6:	a9 8a       	lsr	r10,0x8
80006ee8:	f1 69 00 0a 	st.b	r8[10],r9
80006eec:	30 29       	mov	r9,2
80006eee:	f1 6a 00 08 	st.b	r8[8],r10
80006ef2:	f1 69 00 0d 	st.b	r8[13],r9
80006ef6:	fe b0 e5 a7 	rcall	80003a44 <file_close>
80006efa:	fe b0 e9 93 	rcall	80004220 <nav_reset>
80006efe:	fe c8 f9 b2 	sub	r8,pc,-1614
80006f02:	30 0a       	mov	r10,0
80006f04:	70 0c       	ld.w	r12,r8[0x0]
80006f06:	14 9b       	mov	r11,r10
80006f08:	fe b0 e8 ae 	rcall	80004064 <nav_setcwd>
80006f0c:	c2 d0       	breq	80006f66 <main+0x136>
80006f0e:	30 9c       	mov	r12,9
80006f10:	fe b0 e6 c6 	rcall	80003c9c <file_open>
80006f14:	30 1b       	mov	r11,1
80006f16:	30 0c       	mov	r12,0
80006f18:	fe b0 e5 b8 	rcall	80003a88 <file_seek>
80006f1c:	fe b0 e5 ec 	rcall	80003af4 <file_getpos>
80006f20:	30 0b       	mov	r11,0
80006f22:	18 96       	mov	r6,r12
80006f24:	e0 67 05 14 	mov	r7,1300
80006f28:	16 9c       	mov	r12,r11
80006f2a:	30 05       	mov	r5,0
80006f2c:	fe b0 e5 ae 	rcall	80003a88 <file_seek>
80006f30:	c1 08       	rjmp	80006f50 <main+0x120>
80006f32:	d7 03       	nop
80006f34:	fe b0 e5 e8 	rcall	80003b04 <file_getc>
80006f38:	e9 dc b0 10 	bfexts	r4,r12,0x0,0x10
80006f3c:	fe b0 e5 e4 	rcall	80003b04 <file_getc>
80006f40:	5c 7c       	castu.h	r12
80006f42:	e9 ec 10 84 	or	r4,r4,r12<<0x8
80006f46:	0e b4       	st.h	r7++,r4
80006f48:	2f f5       	sub	r5,-1
80006f4a:	e0 45 10 00 	cp.w	r5,4096
80006f4e:	c6 90       	breq	80007020 <main+0x1f0>
80006f50:	fe b0 e5 82 	rcall	80003a54 <file_eof>
80006f54:	cf 00       	breq	80006f34 <main+0x104>
80006f56:	e0 68 05 14 	mov	r8,1300
80006f5a:	fe 79 fe fe 	mov	r9,-258
80006f5e:	f0 05 0a 19 	st.h	r8[r5<<0x1],r9
80006f62:	fe b0 e5 71 	rcall	80003a44 <file_close>
80006f66:	c2 fe       	rcall	80006bc4 <udc_start>
80006f68:	30 07       	mov	r7,0
80006f6a:	fe b0 f0 1d 	rcall	80004fa4 <udd_attach>
80006f6e:	fe b0 fb 25 	rcall	800065b8 <udi_msc_process_trans>
80006f72:	cf e1       	brne	80006f6e <main+0x13e>
80006f74:	d3 03       	ssrf	0x10
80006f76:	e0 68 2a 60 	mov	r8,10848
80006f7a:	c0 38       	rjmp	80006f80 <main+0x150>
80006f7c:	2f f8       	sub	r8,-1
80006f7e:	2f fc       	sub	r12,-1
80006f80:	11 89       	ld.ub	r9,r8[0x0]
80006f82:	ee 09 18 00 	cp.b	r9,r7
80006f86:	cf b0       	breq	80006f7c <main+0x14c>
80006f88:	58 0c       	cp.w	r12,0
80006f8a:	c0 31       	brne	80006f90 <main+0x160>
80006f8c:	d5 03       	csrf	0x10
80006f8e:	cf 0b       	rjmp	80006f6e <main+0x13e>
80006f90:	d3 03       	ssrf	0x10
80006f92:	20 1c       	sub	r12,1
80006f94:	a7 bc       	sbr	r12,0x7
80006f96:	58 5c       	cp.w	r12,5
80006f98:	c3 e0       	breq	80007014 <main+0x1e4>
80006f9a:	e0 89 00 0e 	brgt	80006fb6 <main+0x186>
80006f9e:	58 2c       	cp.w	r12,2
80006fa0:	c2 80       	breq	80006ff0 <main+0x1c0>
80006fa2:	e0 89 00 05 	brgt	80006fac <main+0x17c>
80006fa6:	58 1c       	cp.w	r12,1
80006fa8:	ce 31       	brne	80006f6e <main+0x13e>
80006faa:	c1 d8       	rjmp	80006fe4 <main+0x1b4>
80006fac:	58 3c       	cp.w	r12,3
80006fae:	c2 70       	breq	80006ffc <main+0x1cc>
80006fb0:	58 4c       	cp.w	r12,4
80006fb2:	cd e1       	brne	80006f6e <main+0x13e>
80006fb4:	c2 a8       	rjmp	80007008 <main+0x1d8>
80006fb6:	e0 4c 00 82 	cp.w	r12,130
80006fba:	c1 e0       	breq	80006ff6 <main+0x1c6>
80006fbc:	e0 89 00 09 	brgt	80006fce <main+0x19e>
80006fc0:	e0 4c 00 80 	cp.w	r12,128
80006fc4:	c0 d0       	breq	80006fde <main+0x1ae>
80006fc6:	e0 4c 00 81 	cp.w	r12,129
80006fca:	cd 21       	brne	80006f6e <main+0x13e>
80006fcc:	c0 f8       	rjmp	80006fea <main+0x1ba>
80006fce:	e0 4c 00 84 	cp.w	r12,132
80006fd2:	c1 e0       	breq	8000700e <main+0x1de>
80006fd4:	c1 75       	brlt	80007002 <main+0x1d2>
80006fd6:	e0 4c 00 85 	cp.w	r12,133
80006fda:	cc a1       	brne	80006f6e <main+0x13e>
80006fdc:	c1 f8       	rjmp	8000701a <main+0x1ea>
80006fde:	e9 b0 00 80 	sleep	0x80
80006fe2:	cc 6b       	rjmp	80006f6e <main+0x13e>
80006fe4:	e9 b0 00 01 	sleep	0x1
80006fe8:	cc 3b       	rjmp	80006f6e <main+0x13e>
80006fea:	e9 b0 00 81 	sleep	0x81
80006fee:	cc 0b       	rjmp	80006f6e <main+0x13e>
80006ff0:	e9 b0 00 02 	sleep	0x2
80006ff4:	cb db       	rjmp	80006f6e <main+0x13e>
80006ff6:	e9 b0 00 82 	sleep	0x82
80006ffa:	cb ab       	rjmp	80006f6e <main+0x13e>
80006ffc:	e9 b0 00 03 	sleep	0x3
80007000:	cb 7b       	rjmp	80006f6e <main+0x13e>
80007002:	e9 b0 00 83 	sleep	0x83
80007006:	cb 4b       	rjmp	80006f6e <main+0x13e>
80007008:	e9 b0 00 04 	sleep	0x4
8000700c:	cb 1b       	rjmp	80006f6e <main+0x13e>
8000700e:	e9 b0 00 84 	sleep	0x84
80007012:	ca eb       	rjmp	80006f6e <main+0x13e>
80007014:	e9 b0 00 05 	sleep	0x5
80007018:	ca bb       	rjmp	80006f6e <main+0x13e>
8000701a:	e9 b0 00 85 	sleep	0x85
8000701e:	ca 8b       	rjmp	80006f6e <main+0x13e>
80007020:	d8 22       	popm	r4-r7,pc
80007022:	d7 03       	nop

80007024 <memcpy>:
80007024:	58 8a       	cp.w	r10,8
80007026:	c2 f5       	brlt	80007084 <memcpy+0x60>
80007028:	f9 eb 10 09 	or	r9,r12,r11
8000702c:	e2 19 00 03 	andl	r9,0x3,COH
80007030:	e0 81 00 97 	brne	8000715e <memcpy+0x13a>
80007034:	e0 4a 00 20 	cp.w	r10,32
80007038:	c3 b4       	brge	800070ae <memcpy+0x8a>
8000703a:	f4 08 14 02 	asr	r8,r10,0x2
8000703e:	f0 09 11 08 	rsub	r9,r8,8
80007042:	fe 09 00 2f 	add	pc,pc,r9<<0x2
80007046:	76 69       	ld.w	r9,r11[0x18]
80007048:	99 69       	st.w	r12[0x18],r9
8000704a:	76 59       	ld.w	r9,r11[0x14]
8000704c:	99 59       	st.w	r12[0x14],r9
8000704e:	76 49       	ld.w	r9,r11[0x10]
80007050:	99 49       	st.w	r12[0x10],r9
80007052:	76 39       	ld.w	r9,r11[0xc]
80007054:	99 39       	st.w	r12[0xc],r9
80007056:	76 29       	ld.w	r9,r11[0x8]
80007058:	99 29       	st.w	r12[0x8],r9
8000705a:	76 19       	ld.w	r9,r11[0x4]
8000705c:	99 19       	st.w	r12[0x4],r9
8000705e:	76 09       	ld.w	r9,r11[0x0]
80007060:	99 09       	st.w	r12[0x0],r9
80007062:	f6 08 00 2b 	add	r11,r11,r8<<0x2
80007066:	f8 08 00 28 	add	r8,r12,r8<<0x2
8000706a:	e0 1a 00 03 	andl	r10,0x3
8000706e:	f4 0a 11 04 	rsub	r10,r10,4
80007072:	fe 0a 00 2f 	add	pc,pc,r10<<0x2
80007076:	17 a9       	ld.ub	r9,r11[0x2]
80007078:	b0 a9       	st.b	r8[0x2],r9
8000707a:	17 99       	ld.ub	r9,r11[0x1]
8000707c:	b0 99       	st.b	r8[0x1],r9
8000707e:	17 89       	ld.ub	r9,r11[0x0]
80007080:	b0 89       	st.b	r8[0x0],r9
80007082:	5e fc       	retal	r12
80007084:	f4 0a 11 09 	rsub	r10,r10,9
80007088:	fe 0a 00 2f 	add	pc,pc,r10<<0x2
8000708c:	17 f9       	ld.ub	r9,r11[0x7]
8000708e:	b8 f9       	st.b	r12[0x7],r9
80007090:	17 e9       	ld.ub	r9,r11[0x6]
80007092:	b8 e9       	st.b	r12[0x6],r9
80007094:	17 d9       	ld.ub	r9,r11[0x5]
80007096:	b8 d9       	st.b	r12[0x5],r9
80007098:	17 c9       	ld.ub	r9,r11[0x4]
8000709a:	b8 c9       	st.b	r12[0x4],r9
8000709c:	17 b9       	ld.ub	r9,r11[0x3]
8000709e:	b8 b9       	st.b	r12[0x3],r9
800070a0:	17 a9       	ld.ub	r9,r11[0x2]
800070a2:	b8 a9       	st.b	r12[0x2],r9
800070a4:	17 99       	ld.ub	r9,r11[0x1]
800070a6:	b8 99       	st.b	r12[0x1],r9
800070a8:	17 89       	ld.ub	r9,r11[0x0]
800070aa:	b8 89       	st.b	r12[0x0],r9
800070ac:	5e fc       	retal	r12
800070ae:	eb cd 40 c0 	pushm	r6-r7,lr
800070b2:	18 99       	mov	r9,r12
800070b4:	22 0a       	sub	r10,32
800070b6:	b7 07       	ld.d	r6,r11++
800070b8:	b3 26       	st.d	r9++,r6
800070ba:	b7 07       	ld.d	r6,r11++
800070bc:	b3 26       	st.d	r9++,r6
800070be:	b7 07       	ld.d	r6,r11++
800070c0:	b3 26       	st.d	r9++,r6
800070c2:	b7 07       	ld.d	r6,r11++
800070c4:	b3 26       	st.d	r9++,r6
800070c6:	22 0a       	sub	r10,32
800070c8:	cf 74       	brge	800070b6 <memcpy+0x92>
800070ca:	2f 0a       	sub	r10,-16
800070cc:	c0 65       	brlt	800070d8 <memcpy+0xb4>
800070ce:	b7 07       	ld.d	r6,r11++
800070d0:	b3 26       	st.d	r9++,r6
800070d2:	b7 07       	ld.d	r6,r11++
800070d4:	b3 26       	st.d	r9++,r6
800070d6:	21 0a       	sub	r10,16
800070d8:	5c 3a       	neg	r10
800070da:	fe 0a 00 3f 	add	pc,pc,r10<<0x3
800070de:	d7 03       	nop
800070e0:	d7 03       	nop
800070e2:	f7 36 00 0e 	ld.ub	r6,r11[14]
800070e6:	f3 66 00 0e 	st.b	r9[14],r6
800070ea:	f7 36 00 0d 	ld.ub	r6,r11[13]
800070ee:	f3 66 00 0d 	st.b	r9[13],r6
800070f2:	f7 36 00 0c 	ld.ub	r6,r11[12]
800070f6:	f3 66 00 0c 	st.b	r9[12],r6
800070fa:	f7 36 00 0b 	ld.ub	r6,r11[11]
800070fe:	f3 66 00 0b 	st.b	r9[11],r6
80007102:	f7 36 00 0a 	ld.ub	r6,r11[10]
80007106:	f3 66 00 0a 	st.b	r9[10],r6
8000710a:	f7 36 00 09 	ld.ub	r6,r11[9]
8000710e:	f3 66 00 09 	st.b	r9[9],r6
80007112:	f7 36 00 08 	ld.ub	r6,r11[8]
80007116:	f3 66 00 08 	st.b	r9[8],r6
8000711a:	f7 36 00 07 	ld.ub	r6,r11[7]
8000711e:	f3 66 00 07 	st.b	r9[7],r6
80007122:	f7 36 00 06 	ld.ub	r6,r11[6]
80007126:	f3 66 00 06 	st.b	r9[6],r6
8000712a:	f7 36 00 05 	ld.ub	r6,r11[5]
8000712e:	f3 66 00 05 	st.b	r9[5],r6
80007132:	f7 36 00 04 	ld.ub	r6,r11[4]
80007136:	f3 66 00 04 	st.b	r9[4],r6
8000713a:	f7 36 00 03 	ld.ub	r6,r11[3]
8000713e:	f3 66 00 03 	st.b	r9[3],r6
80007142:	f7 36 00 02 	ld.ub	r6,r11[2]
80007146:	f3 66 00 02 	st.b	r9[2],r6
8000714a:	f7 36 00 01 	ld.ub	r6,r11[1]
8000714e:	f3 66 00 01 	st.b	r9[1],r6
80007152:	f7 36 00 00 	ld.ub	r6,r11[0]
80007156:	f3 66 00 00 	st.b	r9[0],r6
8000715a:	e3 cd 80 c0 	ldm	sp++,r6-r7,pc
8000715e:	20 1a       	sub	r10,1
80007160:	f6 0a 07 09 	ld.ub	r9,r11[r10]
80007164:	f8 0a 0b 09 	st.b	r12[r10],r9
80007168:	cf b1       	brne	8000715e <memcpy+0x13a>
8000716a:	5e fc       	retal	r12

8000716c <memset>:
8000716c:	18 98       	mov	r8,r12
8000716e:	c0 38       	rjmp	80007174 <memset+0x8>
80007170:	10 cb       	st.b	r8++,r11
80007172:	20 1a       	sub	r10,1
80007174:	58 0a       	cp.w	r10,0
80007176:	cf d1       	brne	80007170 <memset+0x4>
80007178:	5e fc       	retal	r12

Disassembly of section .exception:

80007200 <_evba>:
80007200:	c0 08       	rjmp	80007200 <_evba>
	...

80007204 <_handle_TLB_Multiple_Hit>:
80007204:	c0 08       	rjmp	80007204 <_handle_TLB_Multiple_Hit>
	...

80007208 <_handle_Bus_Error_Data_Fetch>:
80007208:	c0 08       	rjmp	80007208 <_handle_Bus_Error_Data_Fetch>
	...

8000720c <_handle_Bus_Error_Instruction_Fetch>:
8000720c:	c0 08       	rjmp	8000720c <_handle_Bus_Error_Instruction_Fetch>
	...

80007210 <_handle_NMI>:
80007210:	c0 08       	rjmp	80007210 <_handle_NMI>
	...

80007214 <_handle_Instruction_Address>:
80007214:	c0 08       	rjmp	80007214 <_handle_Instruction_Address>
	...

80007218 <_handle_ITLB_Protection>:
80007218:	c0 08       	rjmp	80007218 <_handle_ITLB_Protection>
	...

8000721c <_handle_Breakpoint>:
8000721c:	c0 08       	rjmp	8000721c <_handle_Breakpoint>
	...

80007220 <_handle_Illegal_Opcode>:
80007220:	c0 08       	rjmp	80007220 <_handle_Illegal_Opcode>
	...

80007224 <_handle_Unimplemented_Instruction>:
80007224:	c0 08       	rjmp	80007224 <_handle_Unimplemented_Instruction>
	...

80007228 <_handle_Privilege_Violation>:
80007228:	c0 08       	rjmp	80007228 <_handle_Privilege_Violation>
	...

8000722c <_handle_Floating_Point>:
8000722c:	c0 08       	rjmp	8000722c <_handle_Floating_Point>
	...

80007230 <_handle_Coprocessor_Absent>:
80007230:	c0 08       	rjmp	80007230 <_handle_Coprocessor_Absent>
	...

80007234 <_handle_Data_Address_Read>:
80007234:	c0 08       	rjmp	80007234 <_handle_Data_Address_Read>
	...

80007238 <_handle_Data_Address_Write>:
80007238:	c0 08       	rjmp	80007238 <_handle_Data_Address_Write>
	...

8000723c <_handle_DTLB_Protection_Read>:
8000723c:	c0 08       	rjmp	8000723c <_handle_DTLB_Protection_Read>
	...

80007240 <_handle_DTLB_Protection_Write>:
80007240:	c0 08       	rjmp	80007240 <_handle_DTLB_Protection_Write>
	...

80007244 <_handle_DTLB_Modified>:
80007244:	c0 08       	rjmp	80007244 <_handle_DTLB_Modified>
	...

80007250 <_handle_ITLB_Miss>:
80007250:	c0 08       	rjmp	80007250 <_handle_ITLB_Miss>
	...

80007260 <_handle_DTLB_Miss_Read>:
80007260:	c0 08       	rjmp	80007260 <_handle_DTLB_Miss_Read>
	...

80007270 <_handle_DTLB_Miss_Write>:
80007270:	c0 08       	rjmp	80007270 <_handle_DTLB_Miss_Write>
	...

80007300 <_handle_Supervisor_Call>:
80007300:	c0 08       	rjmp	80007300 <_handle_Supervisor_Call>
80007302:	d7 03       	nop

80007304 <_int0>:
80007304:	30 0c       	mov	r12,0
80007306:	fe b0 ea 7b 	rcall	800047fc <_get_interrupt_handler>
8000730a:	58 0c       	cp.w	r12,0
8000730c:	f8 0f 17 10 	movne	pc,r12
80007310:	d6 03       	rete

80007312 <_int1>:
80007312:	30 1c       	mov	r12,1
80007314:	fe b0 ea 74 	rcall	800047fc <_get_interrupt_handler>
80007318:	58 0c       	cp.w	r12,0
8000731a:	f8 0f 17 10 	movne	pc,r12
8000731e:	d6 03       	rete

80007320 <_int2>:
80007320:	30 2c       	mov	r12,2
80007322:	fe b0 ea 6d 	rcall	800047fc <_get_interrupt_handler>
80007326:	58 0c       	cp.w	r12,0
80007328:	f8 0f 17 10 	movne	pc,r12
8000732c:	d6 03       	rete

8000732e <_int3>:
8000732e:	30 3c       	mov	r12,3
80007330:	fe b0 ea 66 	rcall	800047fc <_get_interrupt_handler>
80007334:	58 0c       	cp.w	r12,0
80007336:	f8 0f 17 10 	movne	pc,r12
8000733a:	d6 03       	rete
8000733c:	d7 03       	nop
8000733e:	d7 03       	nop
80007340:	d7 03       	nop
80007342:	d7 03       	nop
80007344:	d7 03       	nop
80007346:	d7 03       	nop
80007348:	d7 03       	nop
8000734a:	d7 03       	nop
8000734c:	d7 03       	nop
8000734e:	d7 03       	nop
80007350:	d7 03       	nop
80007352:	d7 03       	nop
80007354:	d7 03       	nop
80007356:	d7 03       	nop
80007358:	d7 03       	nop
8000735a:	d7 03       	nop
8000735c:	d7 03       	nop
8000735e:	d7 03       	nop
80007360:	d7 03       	nop
80007362:	d7 03       	nop
80007364:	d7 03       	nop
80007366:	d7 03       	nop
80007368:	d7 03       	nop
8000736a:	d7 03       	nop
8000736c:	d7 03       	nop
8000736e:	d7 03       	nop
80007370:	d7 03       	nop
80007372:	d7 03       	nop
80007374:	d7 03       	nop
80007376:	d7 03       	nop
80007378:	d7 03       	nop
8000737a:	d7 03       	nop
8000737c:	d7 03       	nop
8000737e:	d7 03       	nop
80007380:	d7 03       	nop
80007382:	d7 03       	nop
80007384:	d7 03       	nop
80007386:	d7 03       	nop
80007388:	d7 03       	nop
8000738a:	d7 03       	nop
8000738c:	d7 03       	nop
8000738e:	d7 03       	nop
80007390:	d7 03       	nop
80007392:	d7 03       	nop
80007394:	d7 03       	nop
80007396:	d7 03       	nop
80007398:	d7 03       	nop
8000739a:	d7 03       	nop
8000739c:	d7 03       	nop
8000739e:	d7 03       	nop
800073a0:	d7 03       	nop
800073a2:	d7 03       	nop
800073a4:	d7 03       	nop
800073a6:	d7 03       	nop
800073a8:	d7 03       	nop
800073aa:	d7 03       	nop
800073ac:	d7 03       	nop
800073ae:	d7 03       	nop
800073b0:	d7 03       	nop
800073b2:	d7 03       	nop
800073b4:	d7 03       	nop
800073b6:	d7 03       	nop
800073b8:	d7 03       	nop
800073ba:	d7 03       	nop
800073bc:	d7 03       	nop
800073be:	d7 03       	nop
800073c0:	d7 03       	nop
800073c2:	d7 03       	nop
800073c4:	d7 03       	nop
800073c6:	d7 03       	nop
800073c8:	d7 03       	nop
800073ca:	d7 03       	nop
800073cc:	d7 03       	nop
800073ce:	d7 03       	nop
800073d0:	d7 03       	nop
800073d2:	d7 03       	nop
800073d4:	d7 03       	nop
800073d6:	d7 03       	nop
800073d8:	d7 03       	nop
800073da:	d7 03       	nop
800073dc:	d7 03       	nop
800073de:	d7 03       	nop
800073e0:	d7 03       	nop
800073e2:	d7 03       	nop
800073e4:	d7 03       	nop
800073e6:	d7 03       	nop
800073e8:	d7 03       	nop
800073ea:	d7 03       	nop
800073ec:	d7 03       	nop
800073ee:	d7 03       	nop
800073f0:	d7 03       	nop
800073f2:	d7 03       	nop
800073f4:	d7 03       	nop
800073f6:	d7 03       	nop
800073f8:	d7 03       	nop
800073fa:	d7 03       	nop
800073fc:	d7 03       	nop
800073fe:	d7 03       	nop
